	.file	"intersection.cpp"
	.text
.Ltext0:
	.section	.text._ZNSt15basic_stringbufIcSt11char_traitsIcESaIcEED2Ev,"axG",@progbits,_ZNSt15basic_stringbufIcSt11char_traitsIcESaIcEED5Ev,comdat
	.align 2
	.p2align 4,,15
	.weak	_ZNSt15basic_stringbufIcSt11char_traitsIcESaIcEED2Ev
	.type	_ZNSt15basic_stringbufIcSt11char_traitsIcESaIcEED2Ev, @function
_ZNSt15basic_stringbufIcSt11char_traitsIcESaIcEED2Ev:
.LFB5133:
	.file 1 "/shared/apps/gnu-compilers/gnu-4.8.1/gcc-4.8.1/INSTALL/include/c++/4.8.1/sstream"
	.loc 1 64 0
	.cfi_startproc
.LVL0:
	pushq	%rbx
	.cfi_def_cfa_offset 16
	.cfi_offset 3, -16
	movq	%rdi, %rbx
	subq	$16, %rsp
	.cfi_def_cfa_offset 32
.LBB518:
	.loc 1 64 0
	movq	$_ZTVSt15basic_stringbufIcSt11char_traitsIcESaIcEE+16, (%rdi)
.LVL1:
.LBB519:
.LBB520:
.LBB521:
.LBB522:
.LBB523:
.LBB524:
	.file 2 "/shared/apps/gnu-compilers/gnu-4.8.1/gcc-4.8.1/INSTALL/include/c++/4.8.1/bits/basic_string.h"
	.loc 2 293 0
	movq	72(%rdi), %rax
.LBE524:
.LBE523:
.LBE522:
.LBE521:
	.loc 2 539 0
	leaq	-24(%rax), %rdi
.LVL2:
.LBB525:
.LBB526:
	.loc 2 240 0
	cmpq	$_ZNSs4_Rep20_S_empty_rep_storageE, %rdi
	jne	.L9
.LVL3:
.L3:
.LBE526:
.LBE525:
.LBE520:
.LBE519:
.LBB538:
.LBB539:
	.file 3 "/shared/apps/gnu-compilers/gnu-4.8.1/gcc-4.8.1/INSTALL/include/c++/4.8.1/streambuf"
	.loc 3 198 0
	movq	$_ZTVSt15basic_streambufIcSt11char_traitsIcEE+16, (%rbx)
	leaq	56(%rbx), %rdi
	call	_ZNSt6localeD1Ev
.LVL4:
.LBE539:
.LBE538:
.LBE518:
	.loc 1 64 0
	addq	$16, %rsp
	.cfi_remember_state
	.cfi_def_cfa_offset 16
	popq	%rbx
	.cfi_def_cfa_offset 8
.LVL5:
	ret
.LVL6:
.L9:
	.cfi_restore_state
.LBB541:
.LBB540:
.LBB537:
.LBB536:
.LBB535:
	.loc 2 246 0
	leaq	16(%rdi), %rdx
.LVL7:
.LBB527:
.LBB528:
	.file 4 "/shared/apps/gnu-compilers/gnu-4.8.1/gcc-4.8.1/INSTALL/include/c++/4.8.1/ext/atomicity.h"
	.loc 4 79 0
	movl	$_ZL28__gthrw___pthread_key_createPjPFvPvE, %ecx
	testq	%rcx, %rcx
	je	.L4
.LVL8:
.LBB529:
.LBB530:
	.loc 4 47 0
	orl	$-1, %eax
	lock; xaddl	%eax, (%rdx)
.LVL9:
.L5:
.LBE530:
.LBE529:
.LBE528:
.LBE527:
	.loc 2 245 0
	testl	%eax, %eax
	jg	.L3
	.loc 2 249 0
	leaq	15(%rsp), %rsi
.LVL10:
	call	_ZNSs4_Rep10_M_destroyERKSaIcE
.LVL11:
	jmp	.L3
.LVL12:
.L4:
.LBB534:
.LBB533:
.LBB531:
.LBB532:
	.loc 4 65 0
	movl	-8(%rax), %edx
.LVL13:
	.loc 4 66 0
	leal	-1(%rdx), %ecx
	movl	%ecx, -8(%rax)
.LBE532:
.LBE531:
	.loc 4 82 0
	movl	%edx, %eax
	jmp	.L5
.LBE533:
.LBE534:
.LBE535:
.LBE536:
.LBE537:
.LBE540:
.LBE541:
	.cfi_endproc
.LFE5133:
	.size	_ZNSt15basic_stringbufIcSt11char_traitsIcESaIcEED2Ev, .-_ZNSt15basic_stringbufIcSt11char_traitsIcESaIcEED2Ev
	.weak	_ZNSt15basic_stringbufIcSt11char_traitsIcESaIcEED1Ev
	.set	_ZNSt15basic_stringbufIcSt11char_traitsIcESaIcEED1Ev,_ZNSt15basic_stringbufIcSt11char_traitsIcESaIcEED2Ev
	.section	.text._ZNSt15basic_stringbufIcSt11char_traitsIcESaIcEED0Ev,"axG",@progbits,_ZNSt15basic_stringbufIcSt11char_traitsIcESaIcEED0Ev,comdat
	.align 2
	.p2align 4,,15
	.weak	_ZNSt15basic_stringbufIcSt11char_traitsIcESaIcEED0Ev
	.type	_ZNSt15basic_stringbufIcSt11char_traitsIcESaIcEED0Ev, @function
_ZNSt15basic_stringbufIcSt11char_traitsIcESaIcEED0Ev:
.LFB5135:
	.loc 1 64 0
	.cfi_startproc
.LVL14:
	pushq	%rbx
	.cfi_def_cfa_offset 16
	.cfi_offset 3, -16
	movq	%rdi, %rbx
	subq	$16, %rsp
	.cfi_def_cfa_offset 32
.LBB563:
.LBB564:
	.loc 1 64 0
	movq	$_ZTVSt15basic_stringbufIcSt11char_traitsIcESaIcEE+16, (%rdi)
.LVL15:
.LBB565:
.LBB566:
.LBB567:
.LBB568:
.LBB569:
.LBB570:
	.loc 2 293 0
	movq	72(%rdi), %rax
.LBE570:
.LBE569:
.LBE568:
.LBE567:
	.loc 2 539 0
	leaq	-24(%rax), %rdi
.LVL16:
.LBB571:
.LBB572:
	.loc 2 240 0
	cmpq	$_ZNSs4_Rep20_S_empty_rep_storageE, %rdi
	jne	.L17
.LVL17:
.L12:
.LBE572:
.LBE571:
.LBE566:
.LBE565:
.LBB584:
.LBB585:
	.loc 3 198 0
	leaq	56(%rbx), %rdi
	movq	$_ZTVSt15basic_streambufIcSt11char_traitsIcEE+16, (%rbx)
	call	_ZNSt6localeD1Ev
.LVL18:
.LBE585:
.LBE584:
.LBE564:
.LBE563:
	.loc 1 64 0
	movq	%rbx, %rdi
	call	_ZdlPv
.LVL19:
	addq	$16, %rsp
	.cfi_remember_state
	.cfi_def_cfa_offset 16
	popq	%rbx
	.cfi_def_cfa_offset 8
.LVL20:
	ret
.LVL21:
.L17:
	.cfi_restore_state
.LBB588:
.LBB587:
.LBB586:
.LBB583:
.LBB582:
.LBB581:
	.loc 2 246 0
	leaq	16(%rdi), %rdx
.LVL22:
.LBB573:
.LBB574:
	.loc 4 79 0
	movl	$_ZL28__gthrw___pthread_key_createPjPFvPvE, %ecx
	testq	%rcx, %rcx
	je	.L13
.LVL23:
.LBB575:
.LBB576:
	.loc 4 47 0
	orl	$-1, %eax
	lock; xaddl	%eax, (%rdx)
.LVL24:
.L14:
.LBE576:
.LBE575:
.LBE574:
.LBE573:
	.loc 2 245 0
	testl	%eax, %eax
	jg	.L12
	.loc 2 249 0
	leaq	15(%rsp), %rsi
.LVL25:
	call	_ZNSs4_Rep10_M_destroyERKSaIcE
.LVL26:
	jmp	.L12
.LVL27:
.L13:
.LBB580:
.LBB579:
.LBB577:
.LBB578:
	.loc 4 65 0
	movl	-8(%rax), %edx
.LVL28:
	.loc 4 66 0
	leal	-1(%rdx), %ecx
	movl	%ecx, -8(%rax)
.LBE578:
.LBE577:
	.loc 4 82 0
	movl	%edx, %eax
	jmp	.L14
.LBE579:
.LBE580:
.LBE581:
.LBE582:
.LBE583:
.LBE586:
.LBE587:
.LBE588:
	.cfi_endproc
.LFE5135:
	.size	_ZNSt15basic_stringbufIcSt11char_traitsIcESaIcEED0Ev, .-_ZNSt15basic_stringbufIcSt11char_traitsIcESaIcEED0Ev
	.section	.text._ZN10FastBitset20partial_intersectionERKS_mm,"axG",@progbits,_ZN10FastBitset20partial_intersectionERKS_mm,comdat
	.align 2
	.p2align 4,,15
	.weak	_ZN10FastBitset20partial_intersectionERKS_mm
	.type	_ZN10FastBitset20partial_intersectionERKS_mm, @function
_ZN10FastBitset20partial_intersectionERKS_mm:
.LFB5031:
	.file 5 "inc/FastBitset.h"
	.loc 5 489 0
	.cfi_startproc
.LVL29:
	pushq	%r14
	.cfi_def_cfa_offset 16
	.cfi_offset 14, -16
.LBB589:
	.loc 5 492 0
	movl	%edx, %eax
.LBE589:
	.loc 5 489 0
	pushq	%r13
	.cfi_def_cfa_offset 24
	.cfi_offset 13, -24
.LBB600:
	.loc 5 492 0
	andl	$63, %eax
.LBE600:
	.loc 5 489 0
	pushq	%r12
	.cfi_def_cfa_offset 32
	.cfi_offset 12, -32
	movq	%rdi, %r12
.LBB601:
	.loc 5 496 0
	movl	%eax, %edi
.LVL30:
.LBE601:
	.loc 5 489 0
	pushq	%rbp
	.cfi_def_cfa_offset 40
	.cfi_offset 6, -40
	pushq	%rbx
	.cfi_def_cfa_offset 48
	.cfi_offset 3, -48
.LBB602:
	.loc 5 491 0
	movq	%rdx, %rbx
	.loc 5 493 0
	addl	%ecx, %edx
.LVL31:
	andl	$63, %edx
	.loc 5 491 0
	shrq	$6, %rbx
.LVL32:
	.loc 5 496 0
	movq	512(%r12,%rdi,8), %r10
.LVL33:
.LBB590:
	.loc 5 500 0
	cmpq	$64, %rcx
.LBE590:
	.loc 5 497 0
	movl	%edx, %edi
	movq	(%r12,%rdi,8), %r9
.LVL34:
.LBB597:
	.loc 5 500 0
	ja	.L19
	.loc 5 500 0 is_stmt 0 discriminator 1
	cmpl	%edx, %eax
	jae	.L46
.L20:
	.loc 5 501 0 is_stmt 1
	movq	1024(%r12), %rdi
	leaq	0(,%rbx,8), %rdx
.LVL35:
	.loc 5 502 0
	movl	$1, %r13d
	.loc 5 501 0
	movq	1024(%rsi), %rcx
.LVL36:
	leaq	(%rdi,%rdx), %rax
.LVL37:
	andq	(%rax), %r9
.LVL38:
	andq	%r10, %r9
	andq	(%rcx,%rbx,8), %r9
	movq	%r9, (%rax)
.LVL39:
	.loc 5 502 0
	jmp	.L21
.LVL40:
	.p2align 4,,10
	.p2align 3
.L46:
	.loc 5 500 0 discriminator 1
	leal	(%rdx,%rax), %edi
	testl	%edi, %edi
	je	.L20
	testl	%edx, %edx
	jne	.L19
	cmpl	%edx, %eax
	.p2align 4,,2
	ja	.L20
	.p2align 4,,10
	.p2align 3
.L19:
.LBB591:
	.loc 5 504 0
	leaq	-1(%rcx), %r8
	shrq	$6, %r8
.LVL41:
	.loc 5 505 0
	cmpl	%edx, %eax
	jae	.L47
.L22:
	.loc 5 505 0 is_stmt 0 discriminator 1
	subq	$1, %r8
.LVL42:
.L23:
	.loc 5 524 0 is_stmt 1
	leaq	1(%rbx), %r11
	.loc 5 508 0
	movq	%r8, %rdx
.LVL43:
	.loc 5 511 0
	movq	%r8, %rdi
	.loc 5 508 0
	andl	$3, %edx
.LVL44:
	.loc 5 511 0
	subq	%rdx, %rdi
.LVL45:
	je	.L25
	.loc 5 525 0
	movq	1024(%rsi), %r13
	.loc 5 524 0
	leaq	(%rdi,%rbx), %r14
	.loc 5 525 0
	movq	1024(%r12), %rbp
#APP
# 525 "inc/FastBitset.h" 1
	movq %r14, %rax			
	movq %r11, %rcx			
	forloop478:			
	vmovdqu (%rbp,%rcx,8), %ymm0	
	vmovdqu (%r13,%rcx,8), %ymm1	
	vpand %ymm0, %ymm1, %ymm0	
	vmovdqu %ymm0, (%rbp,%rcx,8)	
	addq $4, %rcx			
	cmpq %rax, %rcx		
	jl forloop478			
	
# 0 "" 2
.LVL46:
#NO_APP
	movq	%rbp, 1024(%r12)
.L25:
.LBB592:
	.loc 5 528 0
	testq	%rdx, %rdx
	jne	.L26
.L28:
	movq	1024(%r12), %rdi
.LVL47:
	movq	1024(%rsi), %rbp
.LVL48:
.L27:
.LBE592:
	.loc 5 536 0
	leaq	0(,%rbx,8), %rdx
	.loc 5 537 0
	addq	%r8, %r11
	.loc 5 536 0
	leaq	(%rdi,%rdx), %rcx
	movq	(%rcx), %rax
	.loc 5 538 0
	leaq	2(%r8), %r13
.LVL49:
	.loc 5 536 0
	andq	0(%rbp,%rbx,8), %rax
	andq	%r10, %rax
	movq	%rax, (%rcx)
	.loc 5 537 0
	leaq	(%rdi,%r11,8), %rcx
	movq	(%rcx), %rax
	andq	0(%rbp,%r11,8), %rax
	andq	%r9, %rax
	movq	%rax, (%rcx)
.LVL50:
.L21:
.LBE591:
.LBE597:
	.loc 5 542 0
	movq	1040(%r12), %rbp
	subq	%rbx, %rbp
	subq	%r13, %rbp
.LVL51:
	.loc 5 544 0
	testq	%rbx, %rbx
	jne	.L48
.LVL52:
.L30:
	.loc 5 546 0
	testq	%rbp, %rbp
	jne	.L49
.LBE602:
	.loc 5 548 0
	popq	%rbx
	.cfi_remember_state
	.cfi_def_cfa_offset 40
.LVL53:
	popq	%rbp
	.cfi_def_cfa_offset 32
.LVL54:
	popq	%r12
	.cfi_def_cfa_offset 24
.LVL55:
	popq	%r13
	.cfi_def_cfa_offset 16
.LVL56:
	popq	%r14
	.cfi_def_cfa_offset 8
	ret
.LVL57:
	.p2align 4,,10
	.p2align 3
.L47:
	.cfi_restore_state
.LBB603:
.LBB598:
.LBB595:
	.loc 5 505 0
	testl	%eax, %eax
	je	.L22
	.loc 5 505 0 is_stmt 0 discriminator 2
	testl	%edx, %edx
	jne	.L23
	.p2align 4,,7
	jmp	.L22
.LVL58:
	.p2align 4,,10
	.p2align 3
.L49:
.LBE595:
.LBE598:
	.loc 5 547 0 is_stmt 1
	movq	1024(%r12), %rax
	addq	%r13, %rbx
.LVL59:
	xorl	%esi, %esi
	leaq	0(,%rbp,8), %rdx
	leaq	(%rax,%rbx,8), %rdi
.LBE603:
	.loc 5 548 0
	popq	%rbx
	.cfi_remember_state
	.cfi_def_cfa_offset 40
	popq	%rbp
	.cfi_def_cfa_offset 32
.LVL60:
	popq	%r12
	.cfi_def_cfa_offset 24
.LVL61:
	popq	%r13
	.cfi_def_cfa_offset 16
.LVL62:
	popq	%r14
	.cfi_def_cfa_offset 8
.LBB604:
	.loc 5 547 0
	jmp	memset
.LVL63:
	.p2align 4,,10
	.p2align 3
.L48:
	.cfi_restore_state
	.loc 5 545 0
	xorl	%esi, %esi
	call	memset
.LVL64:
	jmp	.L30
.LVL65:
	.p2align 4,,10
	.p2align 3
.L26:
.LBB599:
.LBB596:
.LBB594:
.LBB593:
	.loc 5 529 0
	leaq	1(%rdi), %rax
.LVL66:
	cmpq	%rax, %r8
	jb	.L28
	movq	1024(%rsi), %rbp
	leaq	0(,%rbx,8), %rsi
.LVL67:
	movq	1024(%r12), %rdi
.LVL68:
	leaq	(%rdi,%rsi), %rdx
.LVL69:
	addq	%rbp, %rsi
.LVL70:
	.p2align 4,,10
	.p2align 3
.L29:
	.loc 5 530 0 discriminator 2
	movq	(%rsi,%rax,8), %rcx
	andq	%rcx, (%rdx,%rax,8)
	.loc 5 529 0 discriminator 2
	addq	$1, %rax
.LVL71:
	cmpq	%rax, %r8
	jae	.L29
	jmp	.L27
.LBE593:
.LBE594:
.LBE596:
.LBE599:
.LBE604:
	.cfi_endproc
.LFE5031:
	.size	_ZN10FastBitset20partial_intersectionERKS_mm, .-_ZN10FastBitset20partial_intersectionERKS_mm
	.section	.rodata.str1.8,"aMS",@progbits,1
	.align 8
.LC0:
	.string	"basic_string::_S_construct null not valid"
	.section	.text._ZNK10FastBitset8toStringEv,"axG",@progbits,_ZNK10FastBitset8toStringEv,comdat
	.align 2
	.p2align 4,,15
	.weak	_ZNK10FastBitset8toStringEv
	.type	_ZNK10FastBitset8toStringEv, @function
_ZNK10FastBitset8toStringEv:
.LFB5039:
	.loc 5 800 0
	.cfi_startproc
	.cfi_personality 0x3,__gxx_personality_v0
	.cfi_lsda 0x3,.LLSDA5039
.LVL72:
	pushq	%rbp
	.cfi_def_cfa_offset 16
	.cfi_offset 6, -16
	movq	%rsp, %rbp
	.cfi_def_cfa_register 6
	pushq	%r15
	pushq	%r14
	pushq	%r13
	.cfi_offset 15, -24
	.cfi_offset 14, -32
	.cfi_offset 13, -40
	movq	%rdi, %r13
	pushq	%r12
	.cfi_offset 12, -48
	movq	%rsi, %r12
	pushq	%rbx
	andq	$-32, %rsp
	subq	$416, %rsp
	.cfi_offset 3, -56
.LVL73:
.LBB797:
.LBB798:
.LBB799:
.LBB800:
.LBB801:
	.file 6 "/shared/apps/gnu-compilers/gnu-4.8.1/gcc-4.8.1/INSTALL/include/c++/4.8.1/bits/basic_ios.h"
	.loc 6 456 0
	leaq	152(%rsp), %rdi
.LVL74:
	call	_ZNSt8ios_baseC2Ev
.LVL75:
.LBE801:
.LBE800:
.LBB805:
.LBB806:
	.file 7 "/shared/apps/gnu-compilers/gnu-4.8.1/gcc-4.8.1/INSTALL/include/c++/4.8.1/ostream"
	.loc 7 385 0
	movq	_ZTTSt19basic_ostringstreamIcSt11char_traitsIcESaIcEE+8(%rip), %r14
	xorl	%esi, %esi
.LBE806:
.LBE805:
.LBB810:
.LBB802:
	.loc 6 456 0
	movb	$0, 376(%rsp)
.LBE802:
.LBE810:
.LBB811:
.LBB807:
	.loc 7 385 0
	leaq	64(%rsp), %rdi
	movq	_ZTTSt19basic_ostringstreamIcSt11char_traitsIcESaIcEE+16(%rip), %r15
.LBE807:
.LBE811:
.LBB812:
.LBB803:
	.loc 6 456 0
	movq	$_ZTVSt9basic_iosIcSt11char_traitsIcEE+16, 152(%rsp)
	movq	$0, 368(%rsp)
.LBE803:
.LBE812:
.LBB813:
.LBB808:
	.loc 7 385 0
	addq	-24(%r14), %rdi
.LBE808:
.LBE813:
.LBB814:
.LBB804:
	.loc 6 456 0
	movb	$0, 377(%rsp)
	movq	$0, 384(%rsp)
	movq	$0, 392(%rsp)
	movq	$0, 400(%rsp)
	movq	$0, 408(%rsp)
.LVL76:
.LBE804:
.LBE814:
.LBB815:
.LBB809:
	.loc 7 385 0
	movq	%r14, 64(%rsp)
	movq	%r15, (%rdi)
.LEHB0:
	call	_ZNSt9basic_iosIcSt11char_traitsIcEE4initEPSt15basic_streambufIcS1_E
.LEHE0:
.LVL77:
.LBE809:
.LBE815:
.LBB816:
.LBB817:
.LBB818:
.LBB819:
	.loc 3 466 0
	leaq	128(%rsp), %rdi
.LBE819:
.LBE818:
.LBE817:
.LBE816:
	.loc 1 424 0
	movq	$_ZTVSt19basic_ostringstreamIcSt11char_traitsIcESaIcEE+24, 64(%rsp)
	movq	$_ZTVSt19basic_ostringstreamIcSt11char_traitsIcESaIcEE+64, 152(%rsp)
.LVL78:
.LBB828:
.LBB825:
.LBB821:
.LBB820:
	.loc 3 466 0
	movq	$_ZTVSt15basic_streambufIcSt11char_traitsIcEE+16, 72(%rsp)
	movq	$0, 80(%rsp)
	movq	$0, 88(%rsp)
	movq	$0, 96(%rsp)
	movq	$0, 104(%rsp)
	movq	$0, 112(%rsp)
	movq	$0, 120(%rsp)
	call	_ZNSt6localeC1Ev
.LVL79:
.LBE820:
.LBE821:
.LBE825:
.LBE828:
	.loc 1 425 0
	leaq	64(%rsp), %rax
.LBB829:
.LBB826:
	.loc 1 99 0
	movq	$_ZTVSt15basic_stringbufIcSt11char_traitsIcESaIcEE+16, 72(%rsp)
	movl	$16, 136(%rsp)
.LVL80:
.LBE826:
.LBE829:
	.loc 1 425 0
	leaq	8(%rax), %rsi
.LBB830:
.LBB827:
.LBB822:
.LBB823:
.LBB824:
	.loc 2 275 0
	movq	$_ZNSs4_Rep20_S_empty_rep_storageE+24, 144(%rsp)
.LVL81:
.LBE824:
.LBE823:
.LBE822:
.LBE827:
.LBE830:
	.loc 1 425 0
	leaq	88(%rax), %rdi
.LEHB1:
	call	_ZNSt9basic_iosIcSt11char_traitsIcEE4initEPSt15basic_streambufIcS1_E
.LEHE1:
.LVL82:
.LBE799:
.LBE798:
.LBB836:
	.loc 5 803 0 discriminator 1
	xorl	%ebx, %ebx
	cmpq	$0, 1032(%r12)
	je	.L56
.LVL83:
	.p2align 4,,10
	.p2align 3
.L114:
.LBB837:
.LBB838:
	.loc 5 210 0
	movq	1024(%r12), %rax
	movq	%rbx, %rdx
	movl	%ebx, %ecx
.LBE838:
.LBE837:
.LBB840:
.LBB841:
	.loc 7 171 0
	leaq	64(%rsp), %rdi
.LVL84:
.LBE841:
.LBE840:
.LBB843:
.LBB839:
	.loc 5 210 0
	shrq	$6, %rdx
	movq	(%rax,%rdx,8), %rsi
	shrq	%cl, %rsi
	andl	$1, %esi
.LEHB2:
.LBE839:
.LBE843:
.LBB844:
.LBB842:
	.loc 7 171 0
	call	_ZNSo9_M_insertImEERSoT_
.LEHE2:
.LVL85:
.LBE842:
.LBE844:
	.loc 5 803 0
	addq	$1, %rbx
.LVL86:
	cmpq	%rbx, 1032(%r12)
	ja	.L114
.LVL87:
.L56:
.LBE836:
.LBE797:
	.loc 1 129 0
	movq	112(%rsp), %rax
.LBB1094:
.LBB845:
.LBB846:
.LBB847:
.LBB848:
.LBB849:
.LBB850:
	.loc 2 275 0
	movq	$_ZNSs4_Rep20_S_empty_rep_storageE+24, 0(%r13)
.LVL88:
.LBE850:
.LBE849:
.LBE848:
	.loc 1 129 0
	testq	%rax, %rax
	je	.L134
.LVL89:
.LBE847:
.LBE846:
.LBE845:
.LBE1094:
	movq	96(%rsp), %rdi
.LVL90:
	movq	104(%rsp), %rbx
.LBB1095:
.LBB1035:
.LBB1027:
.LBB1019:
	.loc 1 132 0
	cmpq	%rdi, %rax
	jbe	.L58
.LVL91:
.LBB851:
.LBB852:
.LBB853:
.LBB854:
.LBB855:
.LBB856:
.LBB857:
	.file 8 "/shared/apps/gnu-compilers/gnu-4.8.1/gcc-4.8.1/INSTALL/include/c++/4.8.1/bits/basic_string.tcc"
	.loc 8 128 0
	cmpq	%rbx, %rax
	je	.L135
.LVL92:
	.loc 8 132 0
	testq	%rbx, %rbx
	je	.L90
.LVL93:
	.loc 8 138 0
	leaq	31(%rsp), %rdx
.LVL94:
.LBB858:
.LBB859:
.LBB860:
	.file 9 "/shared/apps/gnu-compilers/gnu-4.8.1/gcc-4.8.1/INSTALL/include/c++/4.8.1/bits/stl_iterator_base_funcs.h"
	.loc 9 96 0
	subq	%rbx, %rax
.LVL95:
.LBE860:
.LBE859:
.LBE858:
	.loc 8 138 0
	xorl	%esi, %esi
	movq	%rax, %rdi
.LBB863:
.LBB862:
.LBB861:
	.loc 9 96 0
	movq	%rax, %r12
.LVL96:
.LEHB3:
.LBE861:
.LBE862:
.LBE863:
	.loc 8 138 0
	call	_ZNSs4_Rep9_S_createEmmRKSaIcE
.LEHE3:
.LVL97:
	.loc 8 140 0
	leaq	24(%rax), %r8
.LBB864:
.LBB865:
.LBB866:
	.loc 2 356 0
	cmpq	$1, %r12
.LBE866:
.LBE865:
.LBE864:
	.loc 8 138 0
	movq	%rax, %rcx
.LVL98:
.LBB875:
.LBB873:
.LBB871:
	.loc 2 356 0
	je	.L136
.LBB867:
.LBB868:
	.file 10 "/shared/apps/gnu-compilers/gnu-4.8.1/gcc-4.8.1/INSTALL/include/c++/4.8.1/bits/char_traits.h"
	.loc 10 271 0
	movq	%r8, %rdi
	movq	%r12, %rdx
	movq	%rbx, %rsi
	movq	%rcx, 8(%rsp)
.LVL99:
	call	memcpy
.LVL100:
	movq	8(%rsp), %rcx
	movq	%rax, %r8
.LVL101:
.L62:
.LBE868:
.LBE867:
.LBE871:
.LBE873:
.LBE875:
.LBB876:
.LBB877:
	.loc 2 210 0
	cmpq	$_ZNSs4_Rep20_S_empty_rep_storageE, %rcx
	jne	.L137
.LVL102:
.L59:
.LBE877:
.LBE876:
.LBE857:
.LBE856:
.LBE855:
.LBE854:
.LBE853:
.LBE852:
.LBE851:
.LBB911:
.LBB912:
	.loc 2 583 0
	leaq	32(%rsp), %rbx
.LVL103:
	movq	%r13, %rdi
.LBE912:
.LBE911:
.LBB914:
.LBB905:
.LBB906:
	.loc 2 275 0
	movq	%r8, 32(%rsp)
.LVL104:
.LBE906:
.LBE905:
.LBE914:
.LBB915:
.LBB913:
	.loc 2 583 0
	movq	%rbx, %rsi
.LEHB4:
	call	_ZNSs4swapERSs
.LEHE4:
.LVL105:
.L133:
.LBE913:
.LBE915:
.LBB916:
.LBB917:
.LBB918:
.LBB919:
.LBB920:
.LBB921:
	.loc 2 293 0
	movq	32(%rsp), %rax
.LBE921:
.LBE920:
.LBE919:
.LBE918:
	.loc 2 539 0
	leaq	-24(%rax), %rdi
.LVL106:
.LBB922:
.LBB923:
	.loc 2 240 0
	cmpq	$_ZNSs4_Rep20_S_empty_rep_storageE, %rdi
	jne	.L138
.LVL107:
.L68:
.LBE923:
.LBE922:
.LBE917:
.LBE916:
.LBE1019:
.LBE1027:
.LBE1035:
.LBB1036:
.LBB1037:
.LBB1038:
.LBB1039:
.LBB1040:
.LBB1041:
.LBB1042:
.LBB1043:
.LBB1044:
.LBB1045:
	.loc 2 293 0
	movq	144(%rsp), %rax
.LBE1045:
.LBE1044:
.LBE1043:
.LBE1042:
.LBE1041:
.LBE1040:
.LBE1039:
.LBE1038:
	.loc 1 453 0
	movq	$_ZTVSt19basic_ostringstreamIcSt11char_traitsIcESaIcEE+24, 64(%rsp)
	movq	$_ZTVSt19basic_ostringstreamIcSt11char_traitsIcESaIcEE+64, 152(%rsp)
.LVL108:
.LBB1071:
.LBB1068:
	.loc 1 64 0
	movq	$_ZTVSt15basic_stringbufIcSt11char_traitsIcESaIcEE+16, 72(%rsp)
.LVL109:
.LBB1063:
.LBB1060:
	.loc 2 539 0
	leaq	-24(%rax), %rdi
.LVL110:
.LBB1046:
.LBB1047:
	.loc 2 240 0
	cmpq	$_ZNSs4_Rep20_S_empty_rep_storageE, %rdi
	jne	.L139
.LVL111:
.L86:
.LBE1047:
.LBE1046:
.LBE1060:
.LBE1063:
.LBB1064:
.LBB1065:
	.loc 3 198 0
	leaq	128(%rsp), %rdi
	movq	$_ZTVSt15basic_streambufIcSt11char_traitsIcEE+16, 72(%rsp)
	call	_ZNSt6localeD1Ev
.LVL112:
.LBE1065:
.LBE1064:
.LBE1068:
.LBE1071:
.LBB1072:
.LBB1073:
	.loc 7 93 0
	movq	-24(%r14), %rax
	movq	%r14, 64(%rsp)
.LBE1073:
.LBE1072:
.LBB1075:
.LBB1076:
	.loc 6 276 0
	leaq	152(%rsp), %rdi
.LBE1076:
.LBE1075:
.LBB1078:
.LBB1074:
	.loc 7 93 0
	movq	%r15, 64(%rsp,%rax)
.LVL113:
.LBE1074:
.LBE1078:
.LBB1079:
.LBB1077:
	.loc 6 276 0
	movq	$_ZTVSt9basic_iosIcSt11char_traitsIcEE+16, 152(%rsp)
	call	_ZNSt8ios_baseD2Ev
.LVL114:
.LBE1077:
.LBE1079:
.LBE1037:
.LBE1036:
.LBE1095:
	.loc 5 806 0
	leaq	-40(%rbp), %rsp
.LVL115:
	movq	%r13, %rax
	popq	%rbx
	popq	%r12
	popq	%r13
.LVL116:
	popq	%r14
	popq	%r15
	popq	%rbp
	.cfi_remember_state
	.cfi_def_cfa 7, 8
.LVL117:
	ret
.LVL118:
	.p2align 4,,10
	.p2align 3
.L58:
	.cfi_restore_state
.LBB1096:
.LBB1084:
.LBB1028:
.LBB1020:
.LBB938:
.LBB939:
.LBB940:
.LBB941:
.LBB942:
.LBB943:
.LBB944:
	.loc 8 128 0
	cmpq	%rbx, %rdi
	je	.L140
.LVL119:
	.loc 8 132 0
	testq	%rbx, %rbx
	je	.L141
.L72:
.LVL120:
	.loc 8 138 0
	leaq	31(%rsp), %rdx
.LBB945:
.LBB946:
.LBB947:
	.loc 9 96 0
	subq	%rbx, %rdi
.LVL121:
.LBE947:
.LBE946:
.LBE945:
	.loc 8 138 0
	xorl	%esi, %esi
.LBB950:
.LBB949:
.LBB948:
	.loc 9 96 0
	movq	%rdi, %r12
.LVL122:
.LEHB5:
.LBE948:
.LBE949:
.LBE950:
	.loc 8 138 0
	call	_ZNSs4_Rep9_S_createEmmRKSaIcE
.LEHE5:
.LVL123:
	.loc 8 140 0
	leaq	24(%rax), %r8
.LBB951:
.LBB952:
.LBB953:
	.loc 2 356 0
	cmpq	$1, %r12
.LBE953:
.LBE952:
.LBE951:
	.loc 8 138 0
	movq	%rax, %rcx
.LVL124:
.LBB962:
.LBB960:
.LBB958:
	.loc 2 356 0
	je	.L142
.LBB954:
.LBB955:
	.loc 10 271 0
	movq	%r8, %rdi
	movq	%r12, %rdx
	movq	%rbx, %rsi
	movq	%rcx, 8(%rsp)
.LVL125:
	call	memcpy
.LVL126:
	movq	8(%rsp), %rcx
	movq	%rax, %r8
.LVL127:
.L74:
.LBE955:
.LBE954:
.LBE958:
.LBE960:
.LBE962:
.LBB963:
.LBB964:
	.loc 2 210 0
	cmpq	$_ZNSs4_Rep20_S_empty_rep_storageE, %rcx
	jne	.L143
.LVL128:
.L69:
.LBE964:
.LBE963:
.LBE944:
.LBE943:
.LBE942:
.LBE941:
.LBE940:
.LBE939:
.LBE938:
.LBB998:
.LBB999:
	.loc 2 583 0
	leaq	32(%rsp), %rbx
.LVL129:
	movq	%r13, %rdi
.LBE999:
.LBE998:
.LBB1001:
.LBB992:
.LBB993:
	.loc 2 275 0
	movq	%r8, 32(%rsp)
.LVL130:
.LBE993:
.LBE992:
.LBE1001:
.LBB1002:
.LBB1000:
	.loc 2 583 0
	movq	%rbx, %rsi
.LEHB6:
	call	_ZNSs4swapERSs
.LEHE6:
.LVL131:
	jmp	.L133
.LVL132:
.L136:
.LBE1000:
.LBE1002:
.LBE1020:
.LBE1028:
.LBE1084:
.LBE1096:
	.loc 2 354 0
	movzbl	(%rbx), %eax
.LVL133:
.LBB1097:
.LBB1085:
.LBB1029:
.LBB1021:
.LBB1003:
.LBB907:
.LBB901:
.LBB897:
.LBB893:
.LBB889:
.LBB885:
.LBB883:
.LBB874:
.LBB872:
.LBB869:
.LBB870:
	.loc 10 243 0
	movb	%al, 24(%rcx)
	jmp	.L62
.LVL134:
.L142:
.LBE870:
.LBE869:
.LBE872:
.LBE874:
.LBE883:
.LBE885:
.LBE889:
.LBE893:
.LBE897:
.LBE901:
.LBE907:
.LBE1003:
.LBE1021:
.LBE1029:
.LBE1085:
.LBE1097:
	.loc 2 354 0
	movzbl	(%rbx), %eax
.LVL135:
.LBB1098:
.LBB1086:
.LBB1030:
.LBB1022:
.LBB1004:
.LBB994:
.LBB988:
.LBB984:
.LBB980:
.LBB976:
.LBB972:
.LBB970:
.LBB961:
.LBB959:
.LBB956:
.LBB957:
	.loc 10 243 0
	movb	%al, 24(%rcx)
	jmp	.L74
.LVL136:
.L135:
.LBE957:
.LBE956:
.LBE959:
.LBE961:
.LBE970:
.LBE972:
.LBE976:
.LBE980:
.LBE984:
.LBE988:
.LBE994:
.LBE1004:
.LBB1005:
.LBB908:
.LBB902:
.LBB898:
.LBB894:
.LBB890:
.LBB886:
	.loc 8 129 0
	movl	$_ZNSs4_Rep20_S_empty_rep_storageE+24, %r8d
	jmp	.L59
.LVL137:
.L140:
.LBE886:
.LBE890:
.LBE894:
.LBE898:
.LBE902:
.LBE908:
.LBE1005:
.LBB1006:
.LBB995:
.LBB989:
.LBB985:
.LBB981:
.LBB977:
.LBB973:
	movl	$_ZNSs4_Rep20_S_empty_rep_storageE+24, %r8d
	jmp	.L69
.LVL138:
.L134:
.LBE973:
.LBE977:
.LBE981:
.LBE985:
.LBE989:
.LBE995:
.LBE1006:
.LBB1007:
.LBB1008:
	.loc 2 547 0
	leaq	64(%rsp), %rax
	movq	%r13, %rdi
	leaq	80(%rax), %rsi
.LEHB7:
	call	_ZNSs6assignERKSs
.LEHE7:
.LVL139:
	jmp	.L68
.LVL140:
.L141:
.LBE1008:
.LBE1007:
.LBB1009:
.LBB996:
.LBB990:
.LBB986:
.LBB982:
.LBB978:
.LBB974:
	.loc 8 132 0
	testq	%rdi, %rdi
	je	.L72
	.loc 8 133 0
	movl	$.LC0, %edi
.LVL141:
.LEHB8:
	call	_ZSt19__throw_logic_errorPKc
.LEHE8:
.LVL142:
.L108:
.L124:
	leaq	32(%rsp), %rbx
.LVL143:
	movl	$_ZNSs4_Rep20_S_empty_rep_storageE+24, %edx
.LVL144:
	vzeroupper
.LVL145:
.L81:
.LBE974:
.LBE978:
.LBE982:
.LBE986:
.LBE990:
.LBE996:
.LBE1009:
.LBB1010:
.LBB1011:
	.loc 2 539 0
	leaq	-24(%rdx), %rdi
	movq	%rbx, %rsi
	movq	%rax, 8(%rsp)
.LVL146:
	call	_ZNSs4_Rep10_M_disposeERKSaIcE
.LVL147:
	movq	8(%rsp), %rax
	movq	%rax, %rbx
.LVL148:
.L84:
.LBE1011:
.LBE1010:
.LBE1022:
.LBE1030:
.LBE1086:
	.loc 5 805 0
	leaq	64(%rsp), %rdi
	call	_ZNSt19basic_ostringstreamIcSt11char_traitsIcESaIcEED1Ev
.LVL149:
	movq	%rbx, %rdi
.LEHB9:
	call	_Unwind_Resume
.LEHE9:
.LVL150:
	.p2align 4,,10
	.p2align 3
.L90:
.LBB1087:
.LBB1031:
.LBB1023:
.LBB1012:
.LBB909:
.LBB903:
.LBB899:
.LBB895:
.LBB891:
.LBB887:
	.loc 8 133 0
	movl	$.LC0, %edi
.LEHB10:
	call	_ZSt19__throw_logic_errorPKc
.LEHE10:
.LVL151:
.L109:
	jmp	.L124
.LVL152:
.L104:
.L126:
.LBE887:
.LBE891:
.LBE895:
.LBE899:
.LBE903:
.LBE909:
.LBE1012:
.LBB1013:
.LBB1014:
	.loc 2 539 0
	leaq	30(%rsp), %rsi
	movq	%rax, %r12
.LVL153:
	movq	32(%rsp), %rax
	leaq	-24(%rax), %rdi
	vzeroupper
	call	_ZNSs4_Rep10_M_disposeERKSaIcE
.LVL154:
	movq	%r12, %rax
	movq	0(%r13), %rdx
	jmp	.L81
.LVL155:
.L143:
.LBE1014:
.LBE1013:
.LBB1015:
.LBB997:
.LBB991:
.LBB987:
.LBB983:
.LBB979:
.LBB975:
.LBB971:
.LBB969:
.LBB965:
.LBB966:
	.loc 2 204 0
	movl	$0, 16(%rcx)
.LBE966:
.LBE965:
	.loc 2 214 0
	movq	%r12, (%rcx)
.LVL156:
.LBB967:
.LBB968:
	.loc 10 243 0
	movb	$0, 24(%rcx,%r12)
.LVL157:
	jmp	.L69
.LVL158:
.L139:
.LBE968:
.LBE967:
.LBE969:
.LBE971:
.LBE975:
.LBE979:
.LBE983:
.LBE987:
.LBE991:
.LBE997:
.LBE1015:
.LBE1023:
.LBE1031:
.LBE1087:
.LBB1088:
.LBB1082:
.LBB1080:
.LBB1069:
.LBB1066:
.LBB1061:
.LBB1058:
.LBB1056:
	.loc 2 246 0
	leaq	16(%rdi), %rdx
.LVL159:
.LBB1048:
.LBB1049:
	.loc 4 79 0
	movl	$_ZL28__gthrw___pthread_key_createPjPFvPvE, %ecx
	testq	%rcx, %rcx
	je	.L87
.LVL160:
.LBB1050:
.LBB1051:
	.loc 4 47 0
	movl	$-1, %eax
	lock; xaddl	%eax, (%rdx)
.LVL161:
.L88:
.LBE1051:
.LBE1050:
.LBE1049:
.LBE1048:
	.loc 2 245 0
	testl	%eax, %eax
	jg	.L86
	.loc 2 249 0
	leaq	32(%rsp), %rsi
	call	_ZNSs4_Rep10_M_destroyERKSaIcE
.LVL162:
	jmp	.L86
.LVL163:
.L138:
.LBE1056:
.LBE1058:
.LBE1061:
.LBE1066:
.LBE1069:
.LBE1080:
.LBE1082:
.LBE1088:
.LBB1089:
.LBB1032:
.LBB1024:
.LBB1016:
.LBB936:
.LBB934:
.LBB932:
	.loc 2 246 0
	leaq	16(%rdi), %rdx
.LVL164:
.LBB924:
.LBB925:
	.loc 4 79 0
	movl	$_ZL28__gthrw___pthread_key_createPjPFvPvE, %ecx
	testq	%rcx, %rcx
	je	.L77
.LVL165:
.LBB926:
.LBB927:
	.loc 4 47 0
	movl	$-1, %eax
	lock; xaddl	%eax, (%rdx)
.LVL166:
.L78:
.LBE927:
.LBE926:
.LBE925:
.LBE924:
	.loc 2 245 0
	testl	%eax, %eax
	jg	.L68
	.loc 2 249 0
	leaq	30(%rsp), %rsi
	call	_ZNSs4_Rep10_M_destroyERKSaIcE
.LVL167:
	jmp	.L68
.LVL168:
.L87:
.LBE932:
.LBE934:
.LBE936:
.LBE1016:
.LBE1024:
.LBE1032:
.LBE1089:
.LBB1090:
.LBB1083:
.LBB1081:
.LBB1070:
.LBB1067:
.LBB1062:
.LBB1059:
.LBB1057:
.LBB1055:
.LBB1054:
.LBB1052:
.LBB1053:
	.loc 4 65 0
	movl	-8(%rax), %edx
.LVL169:
	.loc 4 66 0
	leal	-1(%rdx), %ecx
	movl	%ecx, -8(%rax)
.LBE1053:
.LBE1052:
	.loc 4 82 0
	movl	%edx, %eax
	jmp	.L88
.LVL170:
.L77:
.LBE1054:
.LBE1055:
.LBE1057:
.LBE1059:
.LBE1062:
.LBE1067:
.LBE1070:
.LBE1081:
.LBE1083:
.LBE1090:
.LBB1091:
.LBB1033:
.LBB1025:
.LBB1017:
.LBB937:
.LBB935:
.LBB933:
.LBB931:
.LBB930:
.LBB928:
.LBB929:
	.loc 4 65 0
	movl	-8(%rax), %edx
.LVL171:
	.loc 4 66 0
	leal	-1(%rdx), %ecx
	movl	%ecx, -8(%rax)
.LBE929:
.LBE928:
	.loc 4 82 0
	movl	%edx, %eax
	jmp	.L78
.LVL172:
.L106:
.L125:
	movq	0(%r13), %rdx
	leaq	32(%rsp), %rbx
	vzeroupper
	jmp	.L81
.LVL173:
.L107:
	jmp	.L125
.LVL174:
.L102:
.LBE930:
.LBE931:
.LBE933:
.LBE935:
.LBE937:
.LBE1017:
.LBE1025:
.LBE1033:
.LBE1091:
.LBB1092:
.LBB835:
	.loc 1 424 0
	leaq	72(%rsp), %rdi
	movq	%rax, %rbx
	vzeroupper
	call	_ZNSt15basic_stringbufIcSt11char_traitsIcESaIcEED1Ev
.LVL175:
.LBB831:
.LBB832:
	.loc 7 93 0
	movq	-24(%r14), %rax
	movq	%r14, 64(%rsp)
	movq	%r15, 64(%rsp,%rax)
.LVL176:
.L55:
.LBE832:
.LBE831:
.LBB833:
.LBB834:
	.loc 6 276 0
	leaq	152(%rsp), %rdi
.LVL177:
	movq	$_ZTVSt9basic_iosIcSt11char_traitsIcEE+16, 152(%rsp)
	call	_ZNSt8ios_baseD2Ev
.LVL178:
	movq	%rbx, %rdi
.LEHB11:
	call	_Unwind_Resume
.LEHE11:
.LVL179:
.L101:
	movq	%rax, %rbx
	vzeroupper
	jmp	.L55
.LVL180:
.L105:
	jmp	.L126
.LVL181:
.L137:
.LBE834:
.LBE833:
.LBE835:
.LBE1092:
.LBB1093:
.LBB1034:
.LBB1026:
.LBB1018:
.LBB910:
.LBB904:
.LBB900:
.LBB896:
.LBB892:
.LBB888:
.LBB884:
.LBB882:
.LBB878:
.LBB879:
	.loc 2 204 0
	movl	$0, 16(%rcx)
.LBE879:
.LBE878:
	.loc 2 214 0
	movq	%r12, (%rcx)
.LVL182:
.LBB880:
.LBB881:
	.loc 10 243 0
	movb	$0, 24(%rcx,%r12)
.LVL183:
	jmp	.L59
.LVL184:
.L103:
	jmp	.L125
.LVL185:
.L100:
	movq	%rax, %rbx
.LVL186:
	vzeroupper
	jmp	.L84
.LBE881:
.LBE880:
.LBE882:
.LBE884:
.LBE888:
.LBE892:
.LBE896:
.LBE900:
.LBE904:
.LBE910:
.LBE1018:
.LBE1026:
.LBE1034:
.LBE1093:
.LBE1098:
	.cfi_endproc
.LFE5039:
	.globl	__gxx_personality_v0
	.section	.gcc_except_table._ZNK10FastBitset8toStringEv,"aG",@progbits,_ZNK10FastBitset8toStringEv,comdat
.LLSDA5039:
	.byte	0xff
	.byte	0xff
	.byte	0x1
	.uleb128 .LLSDACSE5039-.LLSDACSB5039
.LLSDACSB5039:
	.uleb128 .LEHB0-.LFB5039
	.uleb128 .LEHE0-.LEHB0
	.uleb128 .L101-.LFB5039
	.uleb128 0
	.uleb128 .LEHB1-.LFB5039
	.uleb128 .LEHE1-.LEHB1
	.uleb128 .L102-.LFB5039
	.uleb128 0
	.uleb128 .LEHB2-.LFB5039
	.uleb128 .LEHE2-.LEHB2
	.uleb128 .L100-.LFB5039
	.uleb128 0
	.uleb128 .LEHB3-.LFB5039
	.uleb128 .LEHE3-.LEHB3
	.uleb128 .L107-.LFB5039
	.uleb128 0
	.uleb128 .LEHB4-.LFB5039
	.uleb128 .LEHE4-.LEHB4
	.uleb128 .L105-.LFB5039
	.uleb128 0
	.uleb128 .LEHB5-.LFB5039
	.uleb128 .LEHE5-.LEHB5
	.uleb128 .L103-.LFB5039
	.uleb128 0
	.uleb128 .LEHB6-.LFB5039
	.uleb128 .LEHE6-.LEHB6
	.uleb128 .L104-.LFB5039
	.uleb128 0
	.uleb128 .LEHB7-.LFB5039
	.uleb128 .LEHE7-.LEHB7
	.uleb128 .L106-.LFB5039
	.uleb128 0
	.uleb128 .LEHB8-.LFB5039
	.uleb128 .LEHE8-.LEHB8
	.uleb128 .L108-.LFB5039
	.uleb128 0
	.uleb128 .LEHB9-.LFB5039
	.uleb128 .LEHE9-.LEHB9
	.uleb128 0
	.uleb128 0
	.uleb128 .LEHB10-.LFB5039
	.uleb128 .LEHE10-.LEHB10
	.uleb128 .L109-.LFB5039
	.uleb128 0
	.uleb128 .LEHB11-.LFB5039
	.uleb128 .LEHE11-.LEHB11
	.uleb128 0
	.uleb128 0
.LLSDACSE5039:
	.section	.text._ZNK10FastBitset8toStringEv,"axG",@progbits,_ZNK10FastBitset8toStringEv,comdat
	.size	_ZNK10FastBitset8toStringEv, .-_ZNK10FastBitset8toStringEv
	.section	.text._ZNK10FastBitset11printBitsetEv,"axG",@progbits,_ZNK10FastBitset11printBitsetEv,comdat
	.align 2
	.p2align 4,,15
	.weak	_ZNK10FastBitset11printBitsetEv
	.type	_ZNK10FastBitset11printBitsetEv, @function
_ZNK10FastBitset11printBitsetEv:
.LFB5041:
	.loc 5 815 0
	.cfi_startproc
	.cfi_personality 0x3,__gxx_personality_v0
	.cfi_lsda 0x3,.LLSDA5041
.LVL187:
	pushq	%rbp
	.cfi_def_cfa_offset 16
	.cfi_offset 6, -16
	movq	%rdi, %rsi
	movq	%rsp, %rbp
	.cfi_def_cfa_register 6
	pushq	%rbx
	andq	$-32, %rsp
	subq	$48, %rsp
	.cfi_offset 3, -24
	.loc 5 817 0
	leaq	16(%rsp), %rdi
.LVL188:
.LEHB12:
	call	_ZNK10FastBitset8toStringEv
.LEHE12:
.LVL189:
	movq	16(%rsp), %rdi
.LEHB13:
	call	puts
.LEHE13:
.LVL190:
.LBB1124:
.LBB1125:
.LBB1126:
.LBB1127:
.LBB1128:
.LBB1129:
	.loc 2 293 0
	movq	16(%rsp), %rax
.LBE1129:
.LBE1128:
.LBE1127:
.LBE1126:
	.loc 2 539 0
	leaq	-24(%rax), %rdi
.LVL191:
.LBB1130:
.LBB1131:
	.loc 2 240 0
	cmpq	$_ZNSs4_Rep20_S_empty_rep_storageE, %rdi
	jne	.L154
.LVL192:
.L152:
.LBE1131:
.LBE1130:
.LBE1125:
.LBE1124:
	.loc 5 818 0
	movq	-8(%rbp), %rbx
	leave
	.cfi_remember_state
	.cfi_def_cfa 7, 8
.LVL193:
	ret
.LVL194:
.L154:
	.cfi_restore_state
.LBB1146:
.LBB1144:
.LBB1142:
.LBB1140:
	.loc 2 246 0
	leaq	16(%rdi), %rdx
.LVL195:
.LBB1132:
.LBB1133:
	.loc 4 79 0
	movl	$_ZL28__gthrw___pthread_key_createPjPFvPvE, %ecx
	testq	%rcx, %rcx
	je	.L147
.LVL196:
.LBB1134:
.LBB1135:
	.loc 4 47 0
	orl	$-1, %eax
	lock; xaddl	%eax, (%rdx)
.LVL197:
.L148:
.LBE1135:
.LBE1134:
.LBE1133:
.LBE1132:
	.loc 2 245 0
	testl	%eax, %eax
	jg	.L152
	.loc 2 249 0
	leaq	15(%rsp), %rsi
	call	_ZNSs4_Rep10_M_destroyERKSaIcE
.LVL198:
	jmp	.L152
.LVL199:
.L151:
.LBE1140:
.LBE1142:
.LBE1144:
.LBE1146:
.LBB1147:
.LBB1148:
	.loc 2 539 0
	leaq	15(%rsp), %rsi
	movq	%rax, %rbx
.LVL200:
	movq	16(%rsp), %rax
	leaq	-24(%rax), %rdi
	vzeroupper
	call	_ZNSs4_Rep10_M_disposeERKSaIcE
.LVL201:
	movq	%rbx, %rdi
.LEHB14:
	call	_Unwind_Resume
.LEHE14:
.LVL202:
.L147:
.LBE1148:
.LBE1147:
.LBB1149:
.LBB1145:
.LBB1143:
.LBB1141:
.LBB1139:
.LBB1138:
.LBB1136:
.LBB1137:
	.loc 4 65 0
	movl	-8(%rax), %edx
.LVL203:
	.loc 4 66 0
	leal	-1(%rdx), %ecx
	movl	%ecx, -8(%rax)
.LBE1137:
.LBE1136:
	.loc 4 82 0
	movl	%edx, %eax
	jmp	.L148
.LBE1138:
.LBE1139:
.LBE1141:
.LBE1143:
.LBE1145:
.LBE1149:
	.cfi_endproc
.LFE5041:
	.section	.gcc_except_table._ZNK10FastBitset11printBitsetEv,"aG",@progbits,_ZNK10FastBitset11printBitsetEv,comdat
.LLSDA5041:
	.byte	0xff
	.byte	0xff
	.byte	0x1
	.uleb128 .LLSDACSE5041-.LLSDACSB5041
.LLSDACSB5041:
	.uleb128 .LEHB12-.LFB5041
	.uleb128 .LEHE12-.LEHB12
	.uleb128 0
	.uleb128 0
	.uleb128 .LEHB13-.LFB5041
	.uleb128 .LEHE13-.LEHB13
	.uleb128 .L151-.LFB5041
	.uleb128 0
	.uleb128 .LEHB14-.LFB5041
	.uleb128 .LEHE14-.LEHB14
	.uleb128 0
	.uleb128 0
.LLSDACSE5041:
	.section	.text._ZNK10FastBitset11printBitsetEv,"axG",@progbits,_ZNK10FastBitset11printBitsetEv,comdat
	.size	_ZNK10FastBitset11printBitsetEv, .-_ZNK10FastBitset11printBitsetEv
	.section	.rodata.str1.1,"aMS",@progbits,1
.LC1:
	.string	"inc/FastBitset.h"
	.section	.rodata.str1.8
	.align 8
.LC2:
	.string	"Memory allocation failure in %s on line %d!\n"
	.section	.text._ZN10FastBitset12createBitsetERPmmm,"axG",@progbits,_ZN10FastBitset12createBitsetERPmmm,comdat
	.align 2
	.p2align 4,,15
	.weak	_ZN10FastBitset12createBitsetERPmmm
	.type	_ZN10FastBitset12createBitsetERPmmm, @function
_ZN10FastBitset12createBitsetERPmmm:
.LFB5042:
	.loc 5 825 0
	.cfi_startproc
	.cfi_personality 0x3,__gxx_personality_v0
	.cfi_lsda 0x3,.LLSDA5042
.LVL204:
	pushq	%r12
	.cfi_def_cfa_offset 16
	.cfi_offset 12, -16
.LBB1150:
	.loc 5 830 0
	movq	%rcx, %rax
.LBE1150:
	.loc 5 825 0
	movq	%rsi, %r12
	pushq	%rbp
	.cfi_def_cfa_offset 24
	.cfi_offset 6, -24
.LBB1156:
	.loc 5 831 0
	leaq	0(,%rcx,8), %rbp
	.loc 5 830 0
	andl	$3, %eax
.LBE1156:
	.loc 5 825 0
	pushq	%rbx
	.cfi_def_cfa_offset 32
	.cfi_offset 3, -32
	movq	%rdi, %rbx
	subq	$16, %rsp
	.cfi_def_cfa_offset 48
.LBB1157:
	.loc 5 828 0
	movq	%rdx, 1032(%rdi)
	.loc 5 829 0
	movq	%rcx, 1040(%rdi)
	.loc 5 830 0
	movq	%rax, 1048(%rdi)
	.loc 5 831 0
	movq	%rbp, %rdi
.LVL205:
	call	malloc
.LVL206:
	.loc 5 832 0
	testq	%rax, %rax
	.loc 5 831 0
	movq	%rax, (%r12)
	.loc 5 832 0
	je	.L172
	.loc 5 834 0
	movq	%rbp, %rdx
	xorl	%esi, %esi
	movq	%rax, %rdi
	call	memset
.LVL207:
	xorl	%eax, %eax
.LBB1151:
.LBB1152:
.LBB1153:
	.loc 5 917 0
	movl	$1, %ecx
.LVL208:
	.p2align 4,,10
	.p2align 3
.L158:
	shlx	%rax, %rcx, %rdx
	subq	$1, %rdx
.LBE1153:
.LBE1152:
	.loc 5 837 0
	movq	%rdx, (%rbx,%rax,8)
	.loc 5 838 0
	notq	%rdx
	movq	%rdx, 512(%rbx,%rax,8)
.LVL209:
	addq	$1, %rax
.LVL210:
	.loc 5 836 0
	cmpq	$64, %rax
	jne	.L158
.LBE1151:
	.loc 5 840 0
	movq	$-1, (%rbx)
	.loc 5 841 0
	movq	$-1, 512(%rbx)
.LVL211:
.L170:
.LBE1157:
	.loc 5 860 0
	addq	$16, %rsp
	.cfi_remember_state
	.cfi_def_cfa_offset 32
	popq	%rbx
	.cfi_def_cfa_offset 24
.LVL212:
	popq	%rbp
	.cfi_def_cfa_offset 16
	popq	%r12
	.cfi_def_cfa_offset 8
.LVL213:
	ret
.LVL214:
.L172:
	.cfi_restore_state
.LBB1158:
	.loc 5 833 0
	movl	$8, %edi
	call	__cxa_allocate_exception
.LVL215:
	movl	$_ZNSt9bad_allocD1Ev, %edx
	movl	$_ZTISt9bad_alloc, %esi
.LBB1154:
.LBB1155:
	.file 11 "/shared/apps/gnu-compilers/gnu-4.8.1/gcc-4.8.1/INSTALL/include/c++/4.8.1/new"
	.loc 11 57 0
	movq	$_ZTVSt9bad_alloc+16, (%rax)
.LBE1155:
.LBE1154:
	.loc 5 833 0
	movq	%rax, %rdi
.LEHB15:
	call	__cxa_throw
.LEHE15:
.LVL216:
.L165:
	cmpq	$1, %rdx
	movq	%rax, %rbp
.LBE1158:
.LBB1159:
	.loc 5 855 0
	movq	%rax, %rdi
	je	.L162
	vzeroupper
.LEHB16:
	call	_Unwind_Resume
.LEHE16:
.LVL217:
.L162:
	vzeroupper
	call	__cxa_get_exception_ptr
.LVL218:
	movq	%rbp, %rdi
.LBB1160:
.LBB1161:
	.loc 11 54 0
	movq	$_ZTVSt9bad_alloc+16, (%rsp)
.LBE1161:
.LBE1160:
	.loc 5 855 0
	call	__cxa_begin_catch
.LVL219:
	.loc 5 856 0
	movq	stderr(%rip), %rdi
	xorl	%eax, %eax
	movl	$856, %ecx
	movl	$.LC1, %edx
	movl	$.LC2, %esi
.LEHB17:
	call	fprintf
.LVL220:
	.loc 5 857 0
	movq	stderr(%rip), %rdi
	call	fflush
.LEHE17:
.LVL221:
.LBB1162:
.LBB1163:
	.loc 5 869 0
	movq	$0, 1032(%rbx)
	.loc 5 870 0
	movq	(%r12), %rdi
	.loc 5 869 0
	movq	$0, 1040(%rbx)
	movq	$0, 1048(%rbx)
	.loc 5 870 0
	testq	%rdi, %rdi
	je	.L163
	.loc 5 871 0
	call	free
.LVL222:
	.loc 5 872 0
	movq	$0, (%r12)
.L163:
.LBE1163:
.LBE1162:
	.loc 5 855 0
	movq	%rsp, %rdi
	call	_ZNSt9bad_allocD1Ev
.LVL223:
	call	__cxa_end_catch
.LVL224:
	jmp	.L170
.LVL225:
.L166:
	movq	%rax, %rbx
.LVL226:
	movq	%rsp, %rdi
	vzeroupper
	call	_ZNSt9bad_allocD1Ev
.LVL227:
	call	__cxa_end_catch
.LVL228:
	movq	%rbx, %rdi
.LEHB18:
	call	_Unwind_Resume
.LEHE18:
.LVL229:
.LBE1159:
	.cfi_endproc
.LFE5042:
	.section	.gcc_except_table._ZN10FastBitset12createBitsetERPmmm,"aG",@progbits,_ZN10FastBitset12createBitsetERPmmm,comdat
	.align 4
.LLSDA5042:
	.byte	0xff
	.byte	0x3
	.uleb128 .LLSDATT5042-.LLSDATTD5042
.LLSDATTD5042:
	.byte	0x1
	.uleb128 .LLSDACSE5042-.LLSDACSB5042
.LLSDACSB5042:
	.uleb128 .LEHB15-.LFB5042
	.uleb128 .LEHE15-.LEHB15
	.uleb128 .L165-.LFB5042
	.uleb128 0x1
	.uleb128 .LEHB16-.LFB5042
	.uleb128 .LEHE16-.LEHB16
	.uleb128 0
	.uleb128 0
	.uleb128 .LEHB17-.LFB5042
	.uleb128 .LEHE17-.LEHB17
	.uleb128 .L166-.LFB5042
	.uleb128 0
	.uleb128 .LEHB18-.LFB5042
	.uleb128 .LEHE18-.LEHB18
	.uleb128 0
	.uleb128 0
.LLSDACSE5042:
	.byte	0x1
	.byte	0
	.align 4
	.long	_ZTISt9bad_alloc
.LLSDATT5042:
	.section	.text._ZN10FastBitset12createBitsetERPmmm,"axG",@progbits,_ZN10FastBitset12createBitsetERPmmm,comdat
	.size	_ZN10FastBitset12createBitsetERPmmm, .-_ZN10FastBitset12createBitsetERPmmm
	.text
	.p2align 4,,15
	.globl	_Z10initializeR10FastBitsetS0_
	.type	_Z10initializeR10FastBitsetS0_, @function
_Z10initializeR10FastBitsetS0_:
.LFB5052:
	.file 12 "test/intersection.cpp"
	.loc 12 5 0
	.cfi_startproc
.LVL230:
	pushq	%rbp
	.cfi_def_cfa_offset 16
	.cfi_offset 6, -16
	movq	%rsi, %rbp
.LBB1164:
.LBB1165:
	.loc 5 261 0
	xorl	%esi, %esi
.LVL231:
.LBE1165:
.LBE1164:
	.loc 12 5 0
	pushq	%rbx
	.cfi_def_cfa_offset 24
	.cfi_offset 3, -24
	movq	%rdi, %rbx
	subq	$8, %rsp
	.cfi_def_cfa_offset 32
.LBB1167:
.LBB1166:
	.loc 5 261 0
	movq	1040(%rdi), %rax
	movq	1024(%rdi), %rdi
.LVL232:
	leaq	0(,%rax,8), %rdx
	call	memset
.LVL233:
.LBE1166:
.LBE1167:
.LBB1168:
.LBB1169:
	movq	1040(%rbp), %rax
	xorl	%esi, %esi
	movq	1024(%rbp), %rdi
	leaq	0(,%rax,8), %rdx
	call	memset
.LVL234:
.LBE1169:
.LBE1168:
	.loc 12 4 0
	movq	1032(%rbx), %rcx
.LVL235:
.LBB1170:
	.loc 12 7 0
	movq	%rcx, %rdx
	shrq	%rdx
	je	.L183
	xorl	%ecx, %ecx
	xorl	%eax, %eax
.LBB1171:
.LBB1172:
	.loc 5 197 0
	movl	$1, %edi
	jmp	.L175
.LVL236:
	.p2align 4,,10
	.p2align 3
.L188:
	movq	%rax, %rcx
.LVL237:
.L175:
	.loc 5 197 0 is_stmt 0 discriminator 2
	movq	1024(%rbx), %rdx
	movq	%rdi, %rsi
	shrq	$6, %rax
.LVL238:
	salq	%cl, %rsi
	orq	%rsi, (%rdx,%rax,8)
.LVL239:
	leaq	2(%rcx), %rax
.LBE1172:
.LBE1171:
.LBE1170:
	.loc 12 4 0 is_stmt 1 discriminator 2
	movq	1032(%rbx), %rcx
.LVL240:
.LBB1173:
	.loc 12 7 0 discriminator 2
	movq	%rcx, %rdx
	shrq	%rdx
	cmpq	%rax, %rdx
	ja	.L188
.LVL241:
.L183:
.LBE1173:
	.loc 12 4 0
	movq	%rcx, %rsi
.LVL242:
.LBB1174:
	.loc 12 9 0
	xorl	%eax, %eax
	movq	%rdx, %rcx
	leaq	1(%rdx), %r9
	cmpq	%rsi, %rdx
.LBB1175:
.LBB1176:
	.loc 5 197 0
	movl	$1, %r8d
.LBE1176:
.LBE1175:
	.loc 12 9 0
	jae	.L179
.LVL243:
	.p2align 4,,10
	.p2align 3
.L184:
.LBB1178:
.LBB1177:
	.loc 5 197 0 discriminator 2
	movq	1024(%rbx), %rsi
	movq	%rcx, %rdi
	movq	%r8, %r10
	leal	(%rax,%rdx), %ecx
.LVL244:
	shrq	$6, %rdi
.LVL245:
	salq	%cl, %r10
	leaq	(%r9,%rax), %rcx
.LVL246:
	addq	$1, %rax
.LVL247:
	orq	%r10, (%rsi,%rdi,8)
.LBE1177:
.LBE1178:
	.loc 12 9 0 discriminator 2
	cmpq	%rcx, 1032(%rbx)
	ja	.L184
.LVL248:
.L179:
.LBE1174:
.LBB1179:
	.loc 12 11 0
	movl	$3, %eax
	movl	$1, %edi
	movl	$1, %ecx
	cmpq	$1, 1032(%rbp)
.LBB1180:
.LBB1181:
	.loc 5 197 0
	movl	$1, %r8d
.LBE1181:
.LBE1180:
	.loc 12 11 0
	ja	.L185
	jmp	.L186
.LVL249:
	.p2align 4,,10
	.p2align 3
.L189:
	movq	%rax, %rdi
	movq	%rdx, %rax
.LVL250:
.L185:
.LBB1184:
.LBB1182:
	.loc 5 197 0 discriminator 2
	movq	1024(%rbp), %rdx
	movq	%r8, %rsi
	shrq	$6, %rdi
.LVL251:
	salq	%cl, %rsi
.LBE1182:
.LBE1184:
	.loc 12 11 0 discriminator 2
	addl	$2, %ecx
.LVL252:
.LBB1185:
.LBB1183:
	.loc 5 197 0 discriminator 2
	orq	%rsi, (%rdx,%rdi,8)
	leaq	2(%rax), %rdx
.LBE1183:
.LBE1185:
	.loc 12 11 0 discriminator 2
	cmpq	%rax, 1032(%rbp)
	ja	.L189
.LVL253:
.L186:
.LBE1179:
	.loc 12 13 0
	addq	$8, %rsp
	.cfi_def_cfa_offset 24
	popq	%rbx
	.cfi_def_cfa_offset 16
.LVL254:
	popq	%rbp
	.cfi_def_cfa_offset 8
.LVL255:
	ret
	.cfi_endproc
.LFE5052:
	.size	_Z10initializeR10FastBitsetS0_, .-_Z10initializeR10FastBitsetS0_
	.section	.rodata.str1.1
.LC3:
	.string	"Testing set intersection."
.LC4:
	.string	"Version 1:"
.LC5:
	.string	"\nVersion 2:"
	.section	.rodata.str1.8
	.align 8
.LC6:
	.string	"\nTesting partial intersection."
	.section	.rodata.str1.1
.LC7:
	.string	"First half:"
.LC8:
	.string	"\nMiddle half:"
.LC9:
	.string	"\nFinal half:"
.LC10:
	.string	"\nVector product:"
.LC13:
	.string	"Count (VPD): %lu\n"
.LC14:
	.string	"Count (COR): %lu\n"
	.section	.text.startup,"ax",@progbits
	.p2align 4,,15
	.globl	main
	.type	main, @function
main:
.LFB5053:
	.loc 12 16 0
	.cfi_startproc
	.cfi_personality 0x3,__gxx_personality_v0
	.cfi_lsda 0x3,.LLSDA5053
.LVL256:
	pushq	%rbp
	.cfi_def_cfa_offset 16
	.cfi_offset 6, -16
.LBB1258:
.LBB1259:
.LBB1260:
.LBB1261:
.LBB1262:
.LBB1263:
	.loc 5 864 0
	movl	$4, %ecx
	movl	$128, %edx
.LBE1263:
.LBE1262:
.LBE1261:
.LBE1260:
.LBE1259:
.LBE1258:
	.loc 12 16 0
	movq	%rsp, %rbp
	.cfi_def_cfa_register 6
	pushq	%r12
	pushq	%rbx
	andq	$-32, %rsp
	subq	$4256, %rsp
	.cfi_offset 12, -24
	.cfi_offset 3, -32
.LVL257:
.LBB1344:
.LBB1268:
.LBB1267:
.LBB1266:
.LBB1265:
.LBB1264:
	.loc 5 864 0
	leaq	32(%rsp), %rax
.LVL258:
	leaq	1056(%rsp), %rsi
.LVL259:
	movq	%rax, %rdi
.LVL260:
.LEHB19:
	call	_ZN10FastBitset12createBitsetERPmmm
.LEHE19:
.LVL261:
.LBE1264:
.LBE1265:
.LBE1266:
.LBE1267:
.LBE1268:
.LBB1269:
.LBB1270:
.LBB1271:
.LBB1272:
.LBB1273:
	movl	$4, %ecx
	movl	$128, %edx
	leaq	1088(%rsp), %rax
.LVL262:
	leaq	1024(%rax), %rsi
	movq	%rax, %rdi
.LEHB20:
	call	_ZN10FastBitset12createBitsetERPmmm
.LEHE20:
.LVL263:
.LBE1273:
.LBE1272:
.LBE1271:
.LBE1270:
.LBE1269:
	.loc 12 19 0
	leaq	32(%rsp), %rdi
	leaq	1088(%rsp), %rsi
	call	_Z10initializeR10FastBitsetS0_
.LVL264:
	.loc 12 21 0
	movl	$.LC3, %edi
.LEHB21:
	call	puts
.LVL265:
	.loc 12 22 0
	movl	$.LC4, %edi
	call	puts
.LVL266:
	.loc 12 23 0
	leaq	32(%rsp), %rdi
	call	_ZNK10FastBitset11printBitsetEv
.LVL267:
	.loc 12 24 0
	leaq	1088(%rsp), %rdi
	call	_ZNK10FastBitset11printBitsetEv
.LVL268:
	movq	2128(%rsp), %rdx
	cmpq	%rdx, 1072(%rsp)
	cmovbe	1072(%rsp), %rdx
.LVL269:
.LBB1274:
.LBB1275:
	.loc 5 447 0
	testq	%rdx, %rdx
	leaq	-1(%rdx), %rax
.LVL270:
	je	.L193
	movq	1056(%rsp), %rdx
	movq	2112(%rsp), %rsi
	.p2align 4,,10
	.p2align 3
.L194:
	.loc 5 448 0
	movq	(%rsi,%rax,8), %rcx
	andq	%rcx, (%rdx,%rax,8)
	.loc 5 447 0
	subq	$1, %rax
.LVL271:
	cmpq	$-1, %rax
	jne	.L194
.L193:
.LBE1275:
.LBE1274:
	.loc 12 26 0
	leaq	32(%rsp), %rdi
	call	_ZNK10FastBitset11printBitsetEv
.LVL272:
	.loc 12 29 0
	movl	$.LC5, %edi
	call	puts
.LVL273:
	.loc 12 30 0
	leaq	32(%rsp), %rdi
	leaq	1088(%rsp), %rsi
	call	_Z10initializeR10FastBitsetS0_
.LVL274:
	.loc 12 31 0
	leaq	32(%rsp), %rdi
	call	_ZNK10FastBitset11printBitsetEv
.LVL275:
	.loc 12 32 0
	leaq	1088(%rsp), %rdi
	call	_ZNK10FastBitset11printBitsetEv
.LVL276:
	movq	2128(%rsp), %rax
.LBB1276:
.LBB1277:
	.loc 5 475 0
	movq	2112(%rsp), %rdx
	cmpq	%rax, 1072(%rsp)
	cmovbe	1072(%rsp), %rax
	movq	%rax, %rsi
	movq	1056(%rsp), %rax
#APP
# 475 "inc/FastBitset.h" 1
	movq %rsi, %rcx			
forloop4531:			
	subq $4, %rcx			
	vmovdqu (%rax,%rcx,8), %ymm0	
	vmovdqu (%rdx,%rcx,8), %ymm1	
	vpand %ymm0, %ymm1, %ymm0	
	vmovdqu %ymm0, (%rax,%rcx,8)	
	cmpq $0, %rcx			
	jne forloop4531			
	
# 0 "" 2
#NO_APP
.LBE1277:
.LBE1276:
	.loc 12 34 0
	leaq	32(%rsp), %rdi
.LVL277:
.LBB1279:
.LBB1278:
	.loc 5 475 0
	movq	%rax, 1056(%rsp)
.LBE1278:
.LBE1279:
	.loc 12 34 0
	call	_ZNK10FastBitset11printBitsetEv
.LVL278:
	.loc 12 37 0
	movl	$.LC6, %edi
	call	puts
.LVL279:
	.loc 12 38 0
	movl	$.LC7, %edi
	call	puts
.LVL280:
	.loc 12 39 0
	leaq	32(%rsp), %rdi
	leaq	1088(%rsp), %rsi
	call	_Z10initializeR10FastBitsetS0_
.LVL281:
	.loc 12 40 0
	leaq	32(%rsp), %rdi
	call	_ZNK10FastBitset11printBitsetEv
.LVL282:
	.loc 12 41 0
	leaq	1088(%rsp), %rdi
	call	_ZNK10FastBitset11printBitsetEv
.LVL283:
	.loc 12 42 0
	leaq	32(%rsp), %rdi
	movl	$64, %ecx
	xorl	%edx, %edx
	leaq	1088(%rsp), %rsi
	call	_ZN10FastBitset20partial_intersectionERKS_mm
.LVL284:
	.loc 12 43 0
	leaq	32(%rsp), %rdi
	call	_ZNK10FastBitset11printBitsetEv
.LVL285:
	.loc 12 45 0
	movl	$.LC8, %edi
	call	puts
.LVL286:
	.loc 12 46 0
	leaq	32(%rsp), %rdi
	leaq	1088(%rsp), %rsi
	call	_Z10initializeR10FastBitsetS0_
.LVL287:
	.loc 12 47 0
	leaq	32(%rsp), %rdi
	call	_ZNK10FastBitset11printBitsetEv
.LVL288:
	.loc 12 48 0
	leaq	1088(%rsp), %rdi
	call	_ZNK10FastBitset11printBitsetEv
.LVL289:
	.loc 12 49 0
	leaq	32(%rsp), %rdi
	movl	$64, %ecx
	movl	$32, %edx
	leaq	1088(%rsp), %rsi
	call	_ZN10FastBitset20partial_intersectionERKS_mm
.LVL290:
	.loc 12 50 0
	leaq	32(%rsp), %rdi
	call	_ZNK10FastBitset11printBitsetEv
.LVL291:
	.loc 12 52 0
	movl	$.LC9, %edi
	call	puts
.LVL292:
	.loc 12 53 0
	leaq	32(%rsp), %rdi
	leaq	1088(%rsp), %rsi
	call	_Z10initializeR10FastBitsetS0_
.LVL293:
	.loc 12 54 0
	leaq	32(%rsp), %rdi
	call	_ZNK10FastBitset11printBitsetEv
.LVL294:
	.loc 12 55 0
	leaq	1088(%rsp), %rdi
	call	_ZNK10FastBitset11printBitsetEv
.LVL295:
	.loc 12 56 0
	leaq	32(%rsp), %rdi
	movl	$64, %ecx
	movl	$64, %edx
	leaq	1088(%rsp), %rsi
	call	_ZN10FastBitset20partial_intersectionERKS_mm
.LVL296:
	.loc 12 57 0
	leaq	32(%rsp), %rdi
	call	_ZNK10FastBitset11printBitsetEv
.LVL297:
	.loc 12 59 0
	movl	$.LC10, %edi
	call	puts
.LVL298:
.LBB1280:
.LBB1281:
.LBB1282:
.LBB1283:
.LBB1284:
	.loc 5 864 0
	leaq	2144(%rsp), %rax
.LVL299:
	movl	$80, %ecx
	movl	$5000, %edx
	leaq	1024(%rax), %rsi
	movq	%rax, %rdi
	call	_ZN10FastBitset12createBitsetERPmmm
.LEHE21:
.LVL300:
.LBE1284:
.LBE1283:
.LBE1282:
.LBE1281:
.LBE1280:
.LBB1285:
.LBB1286:
.LBB1287:
.LBB1288:
.LBB1289:
	leaq	3200(%rsp), %rax
.LVL301:
	movl	$80, %ecx
	movl	$5000, %edx
	leaq	1024(%rax), %rsi
	movq	%rax, %rdi
.LEHB22:
	call	_ZN10FastBitset12createBitsetERPmmm
.LEHE22:
.LVL302:
.LBE1289:
.LBE1288:
.LBE1287:
.LBE1286:
.LBE1285:
	.loc 12 63 0
	xorl	%edi, %edi
	xorl	%ebx, %ebx
.LBB1290:
.LBB1291:
.LBB1292:
	.loc 5 197 0
	movl	$1, %r12d
.LBE1292:
.LBE1291:
.LBE1290:
	.loc 12 63 0
	call	time
.LVL303:
	movl	%eax, %edi
	call	srand
.LVL304:
	.p2align 4,,10
	.p2align 3
.L200:
.LBB1297:
	.loc 12 65 0
	call	rand
.LVL305:
	vcvtsi2ss	%eax, %xmm0, %xmm0
	vmulss	.LC11(%rip), %xmm0, %xmm0
	vucomiss	.LC12(%rip), %xmm0
	jbe	.L195
.LVL306:
.LBB1294:
.LBB1293:
	.loc 5 197 0 discriminator 1
	movq	3168(%rsp), %rax
	movq	%rbx, %rdx
	movq	%r12, %rsi
	movl	%ebx, %ecx
	shrq	$6, %rdx
	salq	%cl, %rsi
	orq	%rsi, (%rax,%rdx,8)
.LVL307:
.L195:
.LBE1293:
.LBE1294:
	.loc 12 66 0
	call	rand
.LVL308:
	vcvtsi2ss	%eax, %xmm0, %xmm0
	vmulss	.LC11(%rip), %xmm0, %xmm0
	vucomiss	.LC12(%rip), %xmm0
	jbe	.L197
.LVL309:
.LBB1295:
.LBB1296:
	.loc 5 197 0 discriminator 1
	movq	4224(%rsp), %rax
	movq	%rbx, %rdx
	movq	%r12, %rdi
	movl	%ebx, %ecx
	shrq	$6, %rdx
	salq	%cl, %rdi
	orq	%rdi, (%rax,%rdx,8)
.LVL310:
.L197:
	addq	$1, %rbx
.LVL311:
.LBE1296:
.LBE1295:
	.loc 12 64 0
	cmpq	$5000, %rbx
	jne	.L200
.LVL312:
.LBE1297:
.LBB1298:
.LBB1299:
	.loc 5 666 0
	vpxor	%xmm0, %xmm0, %xmm0
.LBB1300:
.LBB1301:
	.loc 5 734 0
	movq	%rsp, %rdx
.LBE1301:
.LBE1300:
	.loc 5 666 0
	vmovdqa	%ymm0, (%rsp)
	.loc 5 664 0
	movq	2656(%rsp), %r8
.LVL313:
.LBB1305:
.LBB1302:
	.loc 5 734 0
	movl	$76, %r11d
	movl	$1, %r10d
.LBE1302:
.LBE1305:
	.loc 5 665 0
	movq	2208(%rsp), %rdi
.LVL314:
.LBB1306:
.LBB1303:
	.loc 5 734 0
	movq	4224(%rsp), %r9
	movq	3168(%rsp), %rsi
#APP
# 734 "inc/FastBitset.h" 1
	movq %r11, %rax			
	movq %r10, %rcx			
	vzeroall			
	vpbroadcastb $0xf, %ymm3	
	forloop4883:			
	vmovdqu (%rsi,%rcx,8), %ymm0	
	vmovdqu (%r9,%rcx,8), %ymm1	
	vpand %ymm0, %ymm1, %ymm0	
	vpand %ymm0, %ymm3, %ymm4	
	vpsrlw $4, %ymm0, %ymm5	
	vpand %ymm5, %ymm3, %ymm5	
	vpshufb %ymm2, %ymm4, %ymm4	
	vpshufb %ymm2, %ymm5, %ymm5	
	vpaddb %ymm6, %ymm4, %ymm7	
	vpaddb %ymm6, %ymm5, %ymm7	
	vpsadbw %ymm7, %ymm8, %ymm7	
	vpaddq %ymm7, %ymm8, %ymm8	
	addq $4, %rcx			
	cmpq %rax, %rcx		
	jl forloop4883			
	vmovdqu %ymm8, (%rdx)		
	
# 0 "" 2
.LVL315:
#NO_APP
.LBE1303:
.LBB1304:
	.loc 5 788 0
	movq	4224(%rsp), %rcx
	movq	3168(%rsp), %rsi
	movq	616(%rcx), %rdx
	andq	616(%rsi), %rdx
	popcntq	%rdx, %rdx
	addq	(%rsp), %rdx
	movq	%rdx, (%rsp)
.LVL316:
.LBE1304:
	.loc 5 790 0
	movq	(%rsi), %rax
	andq	(%rcx), %rax
	andq	%r8, %rax
	popcntq	%rax, %r8
.LVL317:
	movq	624(%rsi), %rax
	andq	624(%rcx), %rax
	andq	%rdi, %rax
.LBE1306:
.LBE1299:
.LBE1298:
	.loc 12 70 0
	movl	$.LC13, %edi
.LVL318:
.LBB1310:
.LBB1308:
.LBB1307:
	.loc 5 790 0
	popcntq	%rax, %rcx
	movq	16(%rsp), %rax
	addq	%r8, %rcx
	addq	8(%rsp), %rax
.LBE1307:
	.loc 5 793 0
	addq	24(%rsp), %rax
	addq	%rax, %rdx
.LBE1308:
.LBE1310:
	.loc 12 70 0
	xorl	%eax, %eax
.LBB1311:
.LBB1309:
	.loc 5 793 0
	leaq	(%rdx,%rcx), %rsi
.LBE1309:
.LBE1311:
	.loc 12 70 0
	vzeroupper
.LEHB23:
	call	printf
.LVL319:
	.loc 12 71 0
	movq	3176(%rsp), %rcx
	xorl	%edx, %edx
	leaq	3200(%rsp), %rsi
	leaq	2144(%rsp), %rdi
.LVL320:
	call	_ZN10FastBitset20partial_intersectionERKS_mm
.LVL321:
.LBB1312:
.LBB1313:
	.loc 5 361 0
	movq	3184(%rsp), %r12
.LVL322:
.LBB1314:
	.loc 5 366 0
	testq	%r12, %r12
	je	.L215
	movq	3168(%rsp), %rax
.LBE1314:
	.loc 5 359 0
	xorl	%edx, %edx
	xorl	%ecx, %ecx
	xorl	%esi, %esi
	xorl	%edi, %edi
.LBB1315:
	.loc 5 366 0
	xorw	%bx, %bx
.LVL323:
	.p2align 4,,10
	.p2align 3
.L202:
	.loc 5 377 0
	movq	(%rax), %r8
	movq	8(%rax), %r9
	movq	16(%rax), %r10
	movq	24(%rax), %r11
#APP
# 377 "inc/FastBitset.h" 1
	popcntq %r8, %r8	
	addq %r8, %rdi	
	popcntq %r9, %r9	
	addq %r9, %rsi	
	popcntq %r10, %r10	
	addq %r10, %rcx	
	popcntq %r11, %r11	
	addq %r11, %rdx	
	
# 0 "" 2
.LVL324:
	.loc 5 366 0
#NO_APP
	addq	$4, %rbx
.LVL325:
	addq	$32, %rax
	cmpq	%rbx, %r12
	ja	.L202
.LVL326:
.L201:
.LBE1315:
	.loc 5 385 0
	addq	%rdi, %rsi
.LBE1313:
.LBE1312:
	.loc 12 73 0
	xorl	%eax, %eax
	movl	$.LC14, %edi
.LBB1318:
.LBB1316:
	.loc 5 385 0
	addq	%rsi, %rcx
	leaq	(%rcx,%rdx), %rsi
.LBE1316:
.LBE1318:
	.loc 12 73 0
	call	printf
.LEHE23:
.LVL327:
.LBB1319:
.LBB1320:
.LBB1321:
	.loc 5 870 0
	movq	4224(%rsp), %rdi
	.loc 5 869 0
	movq	$0, 4232(%rsp)
	movq	$0, 4240(%rsp)
	movq	$0, 4248(%rsp)
	.loc 5 870 0
	testq	%rdi, %rdi
	je	.L203
	.loc 5 871 0
	call	free
.LVL328:
	.loc 5 872 0
	movq	$0, 4224(%rsp)
.L203:
.LVL329:
.LBE1321:
.LBE1320:
.LBE1319:
.LBB1322:
.LBB1323:
.LBB1324:
	.loc 5 870 0
	movq	3168(%rsp), %rdi
	.loc 5 869 0
	movq	$0, 3176(%rsp)
	movq	$0, 3184(%rsp)
	movq	$0, 3192(%rsp)
	.loc 5 870 0
	testq	%rdi, %rdi
	je	.L204
	.loc 5 871 0
	call	free
.LVL330:
	.loc 5 872 0
	movq	$0, 3168(%rsp)
.L204:
.LVL331:
.LBE1324:
.LBE1323:
.LBE1322:
.LBB1325:
.LBB1326:
.LBB1327:
	.loc 5 870 0
	movq	2112(%rsp), %rdi
	.loc 5 869 0
	movq	$0, 2120(%rsp)
	movq	$0, 2128(%rsp)
	movq	$0, 2136(%rsp)
	.loc 5 870 0
	testq	%rdi, %rdi
	je	.L205
	.loc 5 871 0
	call	free
.LVL332:
	.loc 5 872 0
	movq	$0, 2112(%rsp)
.L205:
.LVL333:
.LBE1327:
.LBE1326:
.LBE1325:
.LBB1328:
.LBB1329:
.LBB1330:
	.loc 5 870 0
	movq	1056(%rsp), %rdi
	.loc 5 869 0
	movq	$0, 1064(%rsp)
	movq	$0, 1072(%rsp)
	movq	$0, 1080(%rsp)
	.loc 5 870 0
	testq	%rdi, %rdi
	je	.L252
	.loc 5 871 0
	call	free
.LVL334:
.L252:
.LBE1330:
.LBE1329:
.LBE1328:
.LBE1344:
	.loc 12 74 0
	leaq	-16(%rbp), %rsp
.LVL335:
	xorl	%eax, %eax
	popq	%rbx
	popq	%r12
.LVL336:
	popq	%rbp
	.cfi_remember_state
	.cfi_def_cfa 7, 8
.LVL337:
	ret
.LVL338:
.L215:
	.cfi_restore_state
.LBB1345:
.LBB1331:
.LBB1317:
	.loc 5 359 0
	xorl	%edx, %edx
	xorl	%ecx, %ecx
	xorl	%esi, %esi
	xorl	%edi, %edi
	jmp	.L201
.LVL339:
.L216:
	movq	%rax, %rbx
	vzeroupper
.L213:
.LVL340:
.LBE1317:
.LBE1331:
.LBB1332:
.LBB1333:
.LBB1334:
	.loc 5 870 0
	movq	1056(%rsp), %rdi
	.loc 5 869 0
	movq	$0, 1064(%rsp)
	movq	$0, 1072(%rsp)
	movq	$0, 1080(%rsp)
	.loc 5 870 0
	testq	%rdi, %rdi
	je	.L214
	.loc 5 871 0
	call	free
.LVL341:
.L214:
	movq	%rbx, %rdi
.LEHB24:
	call	_Unwind_Resume
.LEHE24:
.LVL342:
.L219:
.LBE1334:
.LBE1333:
.LBE1332:
.LBB1335:
.LBB1336:
.LBB1337:
	.loc 5 870 0
	movq	4224(%rsp), %rdi
	movq	%rax, %rbx
.LVL343:
	.loc 5 869 0
	movq	$0, 4232(%rsp)
	movq	$0, 4240(%rsp)
	movq	$0, 4248(%rsp)
	.loc 5 870 0
	testq	%rdi, %rdi
	je	.L254
	.loc 5 871 0
	vzeroupper
	call	free
.LVL344:
	.loc 5 872 0
	movq	$0, 4224(%rsp)
.LVL345:
.L209:
.LBE1337:
.LBE1336:
.LBE1335:
.LBB1338:
.LBB1339:
.LBB1340:
	.loc 5 870 0
	movq	3168(%rsp), %rdi
	.loc 5 869 0
	movq	$0, 3176(%rsp)
	movq	$0, 3184(%rsp)
	movq	$0, 3192(%rsp)
	.loc 5 870 0
	testq	%rdi, %rdi
	je	.L211
	.loc 5 871 0
	call	free
.LVL346:
	.loc 5 872 0
	movq	$0, 3168(%rsp)
.LVL347:
.L211:
.LBE1340:
.LBE1339:
.LBE1338:
.LBB1341:
.LBB1342:
.LBB1343:
	.loc 5 870 0
	movq	2112(%rsp), %rdi
	.loc 5 869 0
	movq	$0, 2120(%rsp)
	movq	$0, 2128(%rsp)
	movq	$0, 2136(%rsp)
	.loc 5 870 0
	testq	%rdi, %rdi
	je	.L213
	.loc 5 871 0
	call	free
.LVL348:
	.loc 5 872 0
	movq	$0, 2112(%rsp)
	jmp	.L213
.LVL349:
.L218:
	movq	%rax, %rbx
.L254:
	vzeroupper
	jmp	.L209
.LVL350:
.L217:
	movq	%rax, %rbx
	vzeroupper
	jmp	.L211
.LBE1343:
.LBE1342:
.LBE1341:
.LBE1345:
	.cfi_endproc
.LFE5053:
	.section	.gcc_except_table,"a",@progbits
.LLSDA5053:
	.byte	0xff
	.byte	0xff
	.byte	0x1
	.uleb128 .LLSDACSE5053-.LLSDACSB5053
.LLSDACSB5053:
	.uleb128 .LEHB19-.LFB5053
	.uleb128 .LEHE19-.LEHB19
	.uleb128 0
	.uleb128 0
	.uleb128 .LEHB20-.LFB5053
	.uleb128 .LEHE20-.LEHB20
	.uleb128 .L216-.LFB5053
	.uleb128 0
	.uleb128 .LEHB21-.LFB5053
	.uleb128 .LEHE21-.LEHB21
	.uleb128 .L217-.LFB5053
	.uleb128 0
	.uleb128 .LEHB22-.LFB5053
	.uleb128 .LEHE22-.LEHB22
	.uleb128 .L218-.LFB5053
	.uleb128 0
	.uleb128 .LEHB23-.LFB5053
	.uleb128 .LEHE23-.LEHB23
	.uleb128 .L219-.LFB5053
	.uleb128 0
	.uleb128 .LEHB24-.LFB5053
	.uleb128 .LEHE24-.LEHB24
	.uleb128 0
	.uleb128 0
.LLSDACSE5053:
	.section	.text.startup
	.size	main, .-main
	.p2align 4,,15
	.type	_GLOBAL__sub_I__Z10initializeR10FastBitsetS0_, @function
_GLOBAL__sub_I__Z10initializeR10FastBitsetS0_:
.LFB5328:
	.loc 12 74 0
	.cfi_startproc
.LVL351:
	subq	$8, %rsp
	.cfi_def_cfa_offset 16
.LBB1348:
.LBB1349:
	.file 13 "/shared/apps/gnu-compilers/gnu-4.8.1/gcc-4.8.1/INSTALL/include/c++/4.8.1/iostream"
	.loc 13 74 0
	movl	$_ZStL8__ioinit, %edi
	call	_ZNSt8ios_base4InitC1Ev
.LVL352:
	movl	$__dso_handle, %edx
	movl	$_ZStL8__ioinit, %esi
	movl	$_ZNSt8ios_base4InitD1Ev, %edi
.LBE1349:
.LBE1348:
	.loc 12 74 0
	addq	$8, %rsp
	.cfi_def_cfa_offset 8
.LBB1351:
.LBB1350:
	.loc 13 74 0
	jmp	__cxa_atexit
.LVL353:
.LBE1350:
.LBE1351:
	.cfi_endproc
.LFE5328:
	.size	_GLOBAL__sub_I__Z10initializeR10FastBitsetS0_, .-_GLOBAL__sub_I__Z10initializeR10FastBitsetS0_
	.section	.ctors,"aw",@progbits
	.align 8
	.quad	_GLOBAL__sub_I__Z10initializeR10FastBitsetS0_
	.local	_ZStL8__ioinit
	.comm	_ZStL8__ioinit,1,1
	.weakref	_ZL28__gthrw___pthread_key_createPjPFvPvE,__pthread_key_create
	.section	.rodata.cst4,"aM",@progbits,4
	.align 4
.LC11:
	.long	805306368
	.align 4
.LC12:
	.long	1056964608
	.text
.Letext0:
	.file 14 "/usr/include/stdint.h"
	.file 15 "/shared/apps/gnu-compilers/usr/lib/gcc/x86_64-redhat-linux/4.4.7/include/stddef.h"
	.file 16 "/shared/apps/gnu-compilers/gnu-4.8.1/gcc-4.8.1/INSTALL/include/c++/4.8.1/type_traits"
	.file 17 "/shared/apps/gnu-compilers/gnu-4.8.1/gcc-4.8.1/INSTALL/include/c++/4.8.1/cstdlib"
	.file 18 "/shared/apps/gnu-compilers/gnu-4.8.1/gcc-4.8.1/INSTALL/include/c++/4.8.1/bits/exception_ptr.h"
	.file 19 "/shared/apps/gnu-compilers/gnu-4.8.1/gcc-4.8.1/INSTALL/include/c++/4.8.1/x86_64-unknown-linux-gnu/bits/c++config.h"
	.file 20 "/shared/apps/gnu-compilers/gnu-4.8.1/gcc-4.8.1/INSTALL/include/c++/4.8.1/bits/stl_pair.h"
	.file 21 "/shared/apps/gnu-compilers/gnu-4.8.1/gcc-4.8.1/INSTALL/include/c++/4.8.1/bits/cpp_type_traits.h"
	.file 22 "/shared/apps/gnu-compilers/gnu-4.8.1/gcc-4.8.1/INSTALL/include/c++/4.8.1/bits/stl_iterator_base_types.h"
	.file 23 "/shared/apps/gnu-compilers/gnu-4.8.1/gcc-4.8.1/INSTALL/include/c++/4.8.1/cwchar"
	.file 24 "/shared/apps/gnu-compilers/gnu-4.8.1/gcc-4.8.1/INSTALL/include/c++/4.8.1/cstdint"
	.file 25 "/shared/apps/gnu-compilers/gnu-4.8.1/gcc-4.8.1/INSTALL/include/c++/4.8.1/bits/allocator.h"
	.file 26 "/shared/apps/gnu-compilers/gnu-4.8.1/gcc-4.8.1/INSTALL/include/c++/4.8.1/clocale"
	.file 27 "/shared/apps/gnu-compilers/gnu-4.8.1/gcc-4.8.1/INSTALL/include/c++/4.8.1/cstdio"
	.file 28 "/shared/apps/gnu-compilers/gnu-4.8.1/gcc-4.8.1/INSTALL/include/c++/4.8.1/initializer_list"
	.file 29 "/shared/apps/gnu-compilers/gnu-4.8.1/gcc-4.8.1/INSTALL/include/c++/4.8.1/bits/stringfwd.h"
	.file 30 "/shared/apps/gnu-compilers/gnu-4.8.1/gcc-4.8.1/INSTALL/include/c++/4.8.1/bits/uses_allocator.h"
	.file 31 "/shared/apps/gnu-compilers/gnu-4.8.1/gcc-4.8.1/INSTALL/include/c++/4.8.1/tuple"
	.file 32 "/shared/apps/gnu-compilers/gnu-4.8.1/gcc-4.8.1/INSTALL/include/c++/4.8.1/cmath"
	.file 33 "/shared/apps/gnu-compilers/gnu-4.8.1/gcc-4.8.1/INSTALL/include/c++/4.8.1/bits/ios_base.h"
	.file 34 "/shared/apps/gnu-compilers/gnu-4.8.1/gcc-4.8.1/INSTALL/include/c++/4.8.1/cwctype"
	.file 35 "/shared/apps/gnu-compilers/gnu-4.8.1/gcc-4.8.1/INSTALL/include/c++/4.8.1/bits/ostream.tcc"
	.file 36 "/shared/apps/gnu-compilers/gnu-4.8.1/gcc-4.8.1/INSTALL/include/c++/4.8.1/cstring"
	.file 37 "/shared/apps/gnu-compilers/gnu-4.8.1/gcc-4.8.1/INSTALL/include/c++/4.8.1/debug/debug.h"
	.file 38 "/shared/apps/gnu-compilers/gnu-4.8.1/gcc-4.8.1/INSTALL/include/c++/4.8.1/bits/stl_list.h"
	.file 39 "/shared/apps/gnu-compilers/gnu-4.8.1/gcc-4.8.1/INSTALL/include/c++/4.8.1/bits/shared_ptr_base.h"
	.file 40 "/shared/apps/gnu-compilers/gnu-4.8.1/gcc-4.8.1/INSTALL/include/c++/4.8.1/exception"
	.file 41 "/shared/apps/gnu-compilers/gnu-4.8.1/gcc-4.8.1/INSTALL/include/c++/4.8.1/bits/basic_ios.tcc"
	.file 42 "/shared/apps/gnu-compilers/gnu-4.8.1/gcc-4.8.1/INSTALL/include/c++/4.8.1/bits/stl_algobase.h"
	.file 43 "/shared/apps/gnu-compilers/gnu-4.8.1/gcc-4.8.1/INSTALL/include/c++/4.8.1/iosfwd"
	.file 44 "/usr/include/bits/types.h"
	.file 45 "/usr/include/stdlib.h"
	.file 46 "/usr/include/time.h"
	.file 47 "/shared/apps/gnu-compilers/gnu-4.8.1/gcc-4.8.1/INSTALL/include/c++/4.8.1/bits/functexcept.h"
	.file 48 "/shared/apps/gnu-compilers/gnu-4.8.1/gcc-4.8.1/INSTALL/include/c++/4.8.1/ext/new_allocator.h"
	.file 49 "/shared/apps/gnu-compilers/gnu-4.8.1/gcc-4.8.1/INSTALL/include/c++/4.8.1/ext/numeric_traits.h"
	.file 50 "/shared/apps/gnu-compilers/gnu-4.8.1/gcc-4.8.1/INSTALL/include/c++/4.8.1/bits/stl_iterator.h"
	.file 51 "/shared/apps/gnu-compilers/gnu-4.8.1/gcc-4.8.1/INSTALL/include/c++/4.8.1/ext/concurrence.h"
	.file 52 "/shared/apps/gnu-compilers/gnu-4.8.1/gcc-4.8.1/INSTALL/include/c++/4.8.1/ext/type_traits.h"
	.file 53 "/usr/include/stdio.h"
	.file 54 "/usr/include/libio.h"
	.file 55 "<built-in>"
	.file 56 "/usr/include/wchar.h"
	.file 57 "/usr/include/locale.h"
	.file 58 "/shared/apps/gnu-compilers/gnu-4.8.1/gcc-4.8.1/INSTALL/include/c++/4.8.1/x86_64-unknown-linux-gnu/bits/atomic_word.h"
	.file 59 "/usr/include/_G_config.h"
	.file 60 "/usr/include/bits/stdio.h"
	.file 61 "/usr/include/bits/mathdef.h"
	.file 62 "/shared/apps/boost/boost_1_55_0/boost/config/suffix.hpp"
	.file 63 "/shared/apps/boost/boost_1_55_0/boost/cstdint.hpp"
	.file 64 "/shared/apps/boost/boost_1_55_0/boost/integer/static_log2.hpp"
	.file 65 "/shared/apps/boost/boost_1_55_0/boost/integer_fwd.hpp"
	.file 66 "/shared/apps/boost/boost_1_55_0/boost/functional/hash/detail/float_functions.hpp"
	.file 67 "/shared/apps/boost/boost_1_55_0/boost/mpl/aux_/adl_barrier.hpp"
	.file 68 "/shared/apps/boost/boost_1_55_0/boost/mpl/integral_c_tag.hpp"
	.file 69 "/shared/apps/boost/boost_1_55_0/boost/mpl/bool_fwd.hpp"
	.file 70 "/shared/apps/boost/boost_1_55_0/boost/type_traits/detail/yes_no_type.hpp"
	.file 71 "/usr/include/wctype.h"
	.file 72 "/usr/include/string.h"
	.file 73 "/shared/apps/boost/boost_1_55_0/boost/mpl/bool.hpp"
	.file 74 "/shared/apps/gnu-compilers/gnu-4.8.1/gcc-4.8.1/INSTALL/include/c++/4.8.1/x86_64-unknown-linux-gnu/bits/gthr-default.h"
	.section	.note.GNU-stack,"",@progbits
